
MPT.elf:     file format elf32-avr

Sections:
Idx Name          Size      VMA       LMA       File off  Algn
  0 .text         00000e16  00000000  00000000  00000074  2**1
                  CONTENTS, ALLOC, LOAD, READONLY, CODE
  1 .data         000000c0  00800060  00000e16  00000e8a  2**0
                  CONTENTS, ALLOC, LOAD, DATA
  2 .comment      0000005c  00000000  00000000  00000f4a  2**0
                  CONTENTS, READONLY
  3 .note.gnu.avr.deviceinfo 0000003c  00000000  00000000  00000fa8  2**2
                  CONTENTS, READONLY
  4 .debug_aranges 000000c0  00000000  00000000  00000fe4  2**0
                  CONTENTS, READONLY, DEBUGGING
  5 .debug_info   00000a70  00000000  00000000  000010a4  2**0
                  CONTENTS, READONLY, DEBUGGING
  6 .debug_abbrev 000006e3  00000000  00000000  00001b14  2**0
                  CONTENTS, READONLY, DEBUGGING
  7 .debug_line   0000073c  00000000  00000000  000021f7  2**0
                  CONTENTS, READONLY, DEBUGGING
  8 .debug_frame  000002dc  00000000  00000000  00002934  2**2
                  CONTENTS, READONLY, DEBUGGING
  9 .debug_str    000003d4  00000000  00000000  00002c10  2**0
                  CONTENTS, READONLY, DEBUGGING
 10 .debug_loc    0000060b  00000000  00000000  00002fe4  2**0
                  CONTENTS, READONLY, DEBUGGING
 11 .debug_ranges 00000090  00000000  00000000  000035ef  2**0
                  CONTENTS, READONLY, DEBUGGING

Disassembly of section .text:

00000000 <__vectors>:
   0:	0c 94 2a 00 	jmp	0x54	; 0x54 <__ctors_end>
   4:	0c 94 3f 00 	jmp	0x7e	; 0x7e <__bad_interrupt>
   8:	0c 94 3f 00 	jmp	0x7e	; 0x7e <__bad_interrupt>
   c:	0c 94 3f 00 	jmp	0x7e	; 0x7e <__bad_interrupt>
  10:	0c 94 3f 00 	jmp	0x7e	; 0x7e <__bad_interrupt>
  14:	0c 94 3f 00 	jmp	0x7e	; 0x7e <__bad_interrupt>
  18:	0c 94 3f 00 	jmp	0x7e	; 0x7e <__bad_interrupt>
  1c:	0c 94 3f 00 	jmp	0x7e	; 0x7e <__bad_interrupt>
  20:	0c 94 3f 00 	jmp	0x7e	; 0x7e <__bad_interrupt>
  24:	0c 94 3f 00 	jmp	0x7e	; 0x7e <__bad_interrupt>
  28:	0c 94 3f 00 	jmp	0x7e	; 0x7e <__bad_interrupt>
  2c:	0c 94 3f 00 	jmp	0x7e	; 0x7e <__bad_interrupt>
  30:	0c 94 3f 00 	jmp	0x7e	; 0x7e <__bad_interrupt>
  34:	0c 94 3f 00 	jmp	0x7e	; 0x7e <__bad_interrupt>
  38:	0c 94 3f 00 	jmp	0x7e	; 0x7e <__bad_interrupt>
  3c:	0c 94 3f 00 	jmp	0x7e	; 0x7e <__bad_interrupt>
  40:	0c 94 3f 00 	jmp	0x7e	; 0x7e <__bad_interrupt>
  44:	0c 94 3f 00 	jmp	0x7e	; 0x7e <__bad_interrupt>
  48:	0c 94 3f 00 	jmp	0x7e	; 0x7e <__bad_interrupt>
  4c:	0c 94 3f 00 	jmp	0x7e	; 0x7e <__bad_interrupt>
  50:	0c 94 3f 00 	jmp	0x7e	; 0x7e <__bad_interrupt>

00000054 <__ctors_end>:
  54:	11 24       	eor	r1, r1
  56:	1f be       	out	0x3f, r1	; 63
  58:	cf e5       	ldi	r28, 0x5F	; 95
  5a:	d8 e0       	ldi	r29, 0x08	; 8
  5c:	de bf       	out	0x3e, r29	; 62
  5e:	cd bf       	out	0x3d, r28	; 61

00000060 <__do_copy_data>:
  60:	11 e0       	ldi	r17, 0x01	; 1
  62:	a0 e6       	ldi	r26, 0x60	; 96
  64:	b0 e0       	ldi	r27, 0x00	; 0
  66:	e6 e1       	ldi	r30, 0x16	; 22
  68:	fe e0       	ldi	r31, 0x0E	; 14
  6a:	02 c0       	rjmp	.+4      	; 0x70 <__do_copy_data+0x10>
  6c:	05 90       	lpm	r0, Z+
  6e:	0d 92       	st	X+, r0
  70:	a0 32       	cpi	r26, 0x20	; 32
  72:	b1 07       	cpc	r27, r17
  74:	d9 f7       	brne	.-10     	; 0x6c <__do_copy_data+0xc>
  76:	0e 94 44 02 	call	0x488	; 0x488 <main>
  7a:	0c 94 09 07 	jmp	0xe12	; 0xe12 <_exit>

0000007e <__bad_interrupt>:
  7e:	0c 94 00 00 	jmp	0	; 0x0 <__vectors>

00000082 <AdcInit>:
			sprintf(String, "Entfernung(1) = %3ld[mm]\n\r", Dist);
			UsartPuts(String);
		}
		
		Wait_x_ms(500);
	}
  82:	cf 93       	push	r28
  84:	df 93       	push	r29
  86:	cd b7       	in	r28, 0x3d	; 61
  88:	de b7       	in	r29, 0x3e	; 62
  8a:	87 e2       	ldi	r24, 0x27	; 39
  8c:	90 e0       	ldi	r25, 0x00	; 0
  8e:	20 e2       	ldi	r18, 0x20	; 32
  90:	fc 01       	movw	r30, r24
  92:	20 83       	st	Z, r18
  94:	86 e2       	ldi	r24, 0x26	; 38
  96:	90 e0       	ldi	r25, 0x00	; 0
  98:	27 e8       	ldi	r18, 0x87	; 135
  9a:	fc 01       	movw	r30, r24
  9c:	20 83       	st	Z, r18
  9e:	80 e5       	ldi	r24, 0x50	; 80
  a0:	90 e0       	ldi	r25, 0x00	; 0
  a2:	20 e5       	ldi	r18, 0x50	; 80
  a4:	30 e0       	ldi	r19, 0x00	; 0
  a6:	f9 01       	movw	r30, r18
  a8:	20 81       	ld	r18, Z
  aa:	2f 71       	andi	r18, 0x1F	; 31
  ac:	fc 01       	movw	r30, r24
  ae:	20 83       	st	Z, r18
  b0:	00 00       	nop
  b2:	df 91       	pop	r29
  b4:	cf 91       	pop	r28
  b6:	08 95       	ret

000000b8 <AdcRead>:
  b8:	cf 93       	push	r28
  ba:	df 93       	push	r29
  bc:	00 d0       	rcall	.+0      	; 0xbe <AdcRead+0x6>
  be:	1f 92       	push	r1
  c0:	cd b7       	in	r28, 0x3d	; 61
  c2:	de b7       	in	r29, 0x3e	; 62
  c4:	8b 83       	std	Y+3, r24	; 0x03
  c6:	8b 81       	ldd	r24, Y+3	; 0x03
  c8:	88 30       	cpi	r24, 0x08	; 8
  ca:	18 f0       	brcs	.+6      	; 0xd2 <AdcRead+0x1a>
  cc:	80 e0       	ldi	r24, 0x00	; 0
  ce:	90 e0       	ldi	r25, 0x00	; 0
  d0:	41 c0       	rjmp	.+130    	; 0x154 <AdcRead+0x9c>
  d2:	87 e2       	ldi	r24, 0x27	; 39
  d4:	90 e0       	ldi	r25, 0x00	; 0
  d6:	27 e2       	ldi	r18, 0x27	; 39
  d8:	30 e0       	ldi	r19, 0x00	; 0
  da:	f9 01       	movw	r30, r18
  dc:	20 81       	ld	r18, Z
  de:	28 7f       	andi	r18, 0xF8	; 248
  e0:	fc 01       	movw	r30, r24
  e2:	20 83       	st	Z, r18
  e4:	87 e2       	ldi	r24, 0x27	; 39
  e6:	90 e0       	ldi	r25, 0x00	; 0
  e8:	27 e2       	ldi	r18, 0x27	; 39
  ea:	30 e0       	ldi	r19, 0x00	; 0
  ec:	f9 01       	movw	r30, r18
  ee:	30 81       	ld	r19, Z
  f0:	2b 81       	ldd	r18, Y+3	; 0x03
  f2:	23 2b       	or	r18, r19
  f4:	fc 01       	movw	r30, r24
  f6:	20 83       	st	Z, r18
  f8:	86 e2       	ldi	r24, 0x26	; 38
  fa:	90 e0       	ldi	r25, 0x00	; 0
  fc:	26 e2       	ldi	r18, 0x26	; 38
  fe:	30 e0       	ldi	r19, 0x00	; 0
 100:	f9 01       	movw	r30, r18
 102:	20 81       	ld	r18, Z
 104:	20 64       	ori	r18, 0x40	; 64
 106:	fc 01       	movw	r30, r24
 108:	20 83       	st	Z, r18
 10a:	00 00       	nop
 10c:	86 e2       	ldi	r24, 0x26	; 38
 10e:	90 e0       	ldi	r25, 0x00	; 0
 110:	fc 01       	movw	r30, r24
 112:	80 81       	ld	r24, Z
 114:	88 2f       	mov	r24, r24
 116:	90 e0       	ldi	r25, 0x00	; 0
 118:	80 74       	andi	r24, 0x40	; 64
 11a:	99 27       	eor	r25, r25
 11c:	89 2b       	or	r24, r25
 11e:	b1 f7       	brne	.-20     	; 0x10c <AdcRead+0x54>
 120:	84 e2       	ldi	r24, 0x24	; 36
 122:	90 e0       	ldi	r25, 0x00	; 0
 124:	fc 01       	movw	r30, r24
 126:	80 81       	ld	r24, Z
 128:	82 95       	swap	r24
 12a:	86 95       	lsr	r24
 12c:	86 95       	lsr	r24
 12e:	83 70       	andi	r24, 0x03	; 3
 130:	28 2f       	mov	r18, r24
 132:	30 e0       	ldi	r19, 0x00	; 0
 134:	85 e2       	ldi	r24, 0x25	; 37
 136:	90 e0       	ldi	r25, 0x00	; 0
 138:	fc 01       	movw	r30, r24
 13a:	80 81       	ld	r24, Z
 13c:	88 2f       	mov	r24, r24
 13e:	90 e0       	ldi	r25, 0x00	; 0
 140:	88 0f       	add	r24, r24
 142:	99 1f       	adc	r25, r25
 144:	88 0f       	add	r24, r24
 146:	99 1f       	adc	r25, r25
 148:	82 2b       	or	r24, r18
 14a:	93 2b       	or	r25, r19
 14c:	9a 83       	std	Y+2, r25	; 0x02
 14e:	89 83       	std	Y+1, r24	; 0x01
 150:	89 81       	ldd	r24, Y+1	; 0x01
 152:	9a 81       	ldd	r25, Y+2	; 0x02
 154:	0f 90       	pop	r0
 156:	0f 90       	pop	r0
 158:	0f 90       	pop	r0
 15a:	df 91       	pop	r29
 15c:	cf 91       	pop	r28
 15e:	08 95       	ret

00000160 <getInd>:
 160:	cf 93       	push	r28
 162:	df 93       	push	r29
 164:	00 d0       	rcall	.+0      	; 0x166 <getInd+0x6>
 166:	1f 92       	push	r1
 168:	cd b7       	in	r28, 0x3d	; 61
 16a:	de b7       	in	r29, 0x3e	; 62
 16c:	9b 83       	std	Y+3, r25	; 0x03
 16e:	8a 83       	std	Y+2, r24	; 0x02
 170:	19 82       	std	Y+1, r1	; 0x01
 172:	03 c0       	rjmp	.+6      	; 0x17a <getInd+0x1a>
 174:	89 81       	ldd	r24, Y+1	; 0x01
 176:	8f 5f       	subi	r24, 0xFF	; 255
 178:	89 83       	std	Y+1, r24	; 0x01
 17a:	8a 81       	ldd	r24, Y+2	; 0x02
 17c:	9b 81       	ldd	r25, Y+3	; 0x03
 17e:	9c 01       	movw	r18, r24
 180:	40 e0       	ldi	r20, 0x00	; 0
 182:	50 e0       	ldi	r21, 0x00	; 0
 184:	89 81       	ldd	r24, Y+1	; 0x01
 186:	88 2f       	mov	r24, r24
 188:	90 e0       	ldi	r25, 0x00	; 0
 18a:	88 0f       	add	r24, r24
 18c:	99 1f       	adc	r25, r25
 18e:	88 0f       	add	r24, r24
 190:	99 1f       	adc	r25, r25
 192:	88 0f       	add	r24, r24
 194:	99 1f       	adc	r25, r25
 196:	80 5a       	subi	r24, 0xA0	; 160
 198:	9f 4f       	sbci	r25, 0xFF	; 255
 19a:	fc 01       	movw	r30, r24
 19c:	80 81       	ld	r24, Z
 19e:	91 81       	ldd	r25, Z+1	; 0x01
 1a0:	a2 81       	ldd	r26, Z+2	; 0x02
 1a2:	b3 81       	ldd	r27, Z+3	; 0x03
 1a4:	28 17       	cp	r18, r24
 1a6:	39 07       	cpc	r19, r25
 1a8:	4a 07       	cpc	r20, r26
 1aa:	5b 07       	cpc	r21, r27
 1ac:	1c f3       	brlt	.-58     	; 0x174 <getInd+0x14>
 1ae:	89 81       	ldd	r24, Y+1	; 0x01
 1b0:	81 50       	subi	r24, 0x01	; 1
 1b2:	89 83       	std	Y+1, r24	; 0x01
 1b4:	89 81       	ldd	r24, Y+1	; 0x01
 1b6:	0f 90       	pop	r0
 1b8:	0f 90       	pop	r0
 1ba:	0f 90       	pop	r0
 1bc:	df 91       	pop	r29
 1be:	cf 91       	pop	r28
 1c0:	08 95       	ret

000001c2 <A_4_3_3>:

//##############################################################################

// A_4_3_3: Einlesen der Messwerte und Ausgabe mittels 20-stufiger Kennlinie.
void A_4_3_3(void)
{
 1c2:	6f 92       	push	r6
 1c4:	7f 92       	push	r7
 1c6:	8f 92       	push	r8
 1c8:	9f 92       	push	r9
 1ca:	af 92       	push	r10
 1cc:	bf 92       	push	r11
 1ce:	cf 92       	push	r12
 1d0:	df 92       	push	r13
 1d2:	ef 92       	push	r14
 1d4:	ff 92       	push	r15
 1d6:	0f 93       	push	r16
 1d8:	1f 93       	push	r17
 1da:	cf 93       	push	r28
 1dc:	df 93       	push	r29
 1de:	cd b7       	in	r28, 0x3d	; 61
 1e0:	de b7       	in	r29, 0x3e	; 62
 1e2:	c8 55       	subi	r28, 0x58	; 88
 1e4:	d1 09       	sbc	r29, r1
 1e6:	0f b6       	in	r0, 0x3f	; 63
 1e8:	f8 94       	cli
 1ea:	de bf       	out	0x3e, r29	; 62
 1ec:	0f be       	out	0x3f, r0	; 63
 1ee:	cd bf       	out	0x3d, r28	; 61
	LED_DDR = 0b11111111;
 1f0:	84 e3       	ldi	r24, 0x34	; 52
 1f2:	90 e0       	ldi	r25, 0x00	; 0
 1f4:	2f ef       	ldi	r18, 0xFF	; 255
 1f6:	fc 01       	movw	r30, r24
 1f8:	20 83       	st	Z, r18

	// Alle LEDs aus
	LED_PORT = 0b11111111;
 1fa:	85 e3       	ldi	r24, 0x35	; 53
 1fc:	90 e0       	ldi	r25, 0x00	; 0
 1fe:	2f ef       	ldi	r18, 0xFF	; 255
 200:	fc 01       	movw	r30, r24
 202:	20 83       	st	Z, r18

	// Initialisierung der USART-Schnittstelle
	// 8 Zeichenbits, 1 Stopbit, 0 Paritätsbit, 9600 Baud
	UsartInit(8,1,0,9600);
 204:	00 e8       	ldi	r16, 0x80	; 128
 206:	15 e2       	ldi	r17, 0x25	; 37
 208:	20 e0       	ldi	r18, 0x00	; 0
 20a:	30 e0       	ldi	r19, 0x00	; 0
 20c:	40 e0       	ldi	r20, 0x00	; 0
 20e:	61 e0       	ldi	r22, 0x01	; 1
 210:	88 e0       	ldi	r24, 0x08	; 8
 212:	0e 94 7a 02 	call	0x4f4	; 0x4f4 <UsartInit>

	AdcInit();
 216:	0e 94 41 00 	call	0x82	; 0x82 <AdcInit>
	char String[80];
	
	while(1){
		// AD-Kanal 2
		// Kanal auswählen und in ADMUX maskieren
		AdcChan = 2;
 21a:	82 e0       	ldi	r24, 0x02	; 2
 21c:	8d 83       	std	Y+5, r24	; 0x05
		AdcRes = AdcRead(AdcChan);
 21e:	8d 81       	ldd	r24, Y+5	; 0x05
 220:	0e 94 5c 00 	call	0xb8	; 0xb8 <AdcRead>
 224:	9f 83       	std	Y+7, r25	; 0x07
 226:	8e 83       	std	Y+6, r24	; 0x06

		// Ausgabe der Ergebnisse auf dem Terminal
		// Berechnung der Werte als Festkommazahl
		AdcRes = (AdcRes * (uint32_t)500)/1024;
 228:	8e 81       	ldd	r24, Y+6	; 0x06
 22a:	9f 81       	ldd	r25, Y+7	; 0x07
 22c:	9c 01       	movw	r18, r24
 22e:	40 e0       	ldi	r20, 0x00	; 0
 230:	50 e0       	ldi	r21, 0x00	; 0
 232:	84 ef       	ldi	r24, 0xF4	; 244
 234:	91 e0       	ldi	r25, 0x01	; 1
 236:	dc 01       	movw	r26, r24
 238:	0e 94 14 04 	call	0x828	; 0x828 <__muluhisi3>
 23c:	dc 01       	movw	r26, r24
 23e:	cb 01       	movw	r24, r22
 240:	07 2e       	mov	r0, r23
 242:	7a e0       	ldi	r23, 0x0A	; 10
 244:	b6 95       	lsr	r27
 246:	a7 95       	ror	r26
 248:	97 95       	ror	r25
 24a:	87 95       	ror	r24
 24c:	7a 95       	dec	r23
 24e:	d1 f7       	brne	.-12     	; 0x244 <A_4_3_3+0x82>
 250:	70 2d       	mov	r23, r0
 252:	9f 83       	std	Y+7, r25	; 0x07
 254:	8e 83       	std	Y+6, r24	; 0x06

		sprintf(String, "AD-Wandlung: Kanal[2] = %d\n\r", AdcRes);
 256:	8f 81       	ldd	r24, Y+7	; 0x07
 258:	8f 93       	push	r24
 25a:	8e 81       	ldd	r24, Y+6	; 0x06
 25c:	8f 93       	push	r24
 25e:	88 ee       	ldi	r24, 0xE8	; 232
 260:	90 e0       	ldi	r25, 0x00	; 0
 262:	89 2f       	mov	r24, r25
 264:	8f 93       	push	r24
 266:	88 ee       	ldi	r24, 0xE8	; 232
 268:	90 e0       	ldi	r25, 0x00	; 0
 26a:	8f 93       	push	r24
 26c:	ce 01       	movw	r24, r28
 26e:	09 96       	adiw	r24, 0x09	; 9
 270:	29 2f       	mov	r18, r25
 272:	2f 93       	push	r18
 274:	8f 93       	push	r24
 276:	0e 94 1f 04 	call	0x83e	; 0x83e <sprintf>
 27a:	0f 90       	pop	r0
 27c:	0f 90       	pop	r0
 27e:	0f 90       	pop	r0
 280:	0f 90       	pop	r0
 282:	0f 90       	pop	r0
 284:	0f 90       	pop	r0
		UsartPuts(String);
 286:	ce 01       	movw	r24, r28
 288:	09 96       	adiw	r24, 0x09	; 9
 28a:	0e 94 8e 03 	call	0x71c	; 0x71c <UsartPuts>

		// Überführen des Messwertes aus der AD-Wandlung in die reale Entfernung
		{
			int32_t Dist = 0;
 28e:	19 82       	std	Y+1, r1	; 0x01
 290:	1a 82       	std	Y+2, r1	; 0x02
 292:	1b 82       	std	Y+3, r1	; 0x03
 294:	1c 82       	std	Y+4, r1	; 0x04

			// Entfernung < Minimalentfernung?
			if (AdcRes > GP2D120_3[0][0])						// GP2D120_1[Index_0: Messwert AD-Wandlung][Index_1: reale Entfernung]
 296:	8e 81       	ldd	r24, Y+6	; 0x06
 298:	9f 81       	ldd	r25, Y+7	; 0x07
 29a:	9c 01       	movw	r18, r24
 29c:	40 e0       	ldi	r20, 0x00	; 0
 29e:	50 e0       	ldi	r21, 0x00	; 0
 2a0:	80 91 60 00 	lds	r24, 0x0060	; 0x800060 <__DATA_REGION_ORIGIN__>
 2a4:	90 91 61 00 	lds	r25, 0x0061	; 0x800061 <__DATA_REGION_ORIGIN__+0x1>
 2a8:	a0 91 62 00 	lds	r26, 0x0062	; 0x800062 <__DATA_REGION_ORIGIN__+0x2>
 2ac:	b0 91 63 00 	lds	r27, 0x0063	; 0x800063 <__DATA_REGION_ORIGIN__+0x3>
 2b0:	82 17       	cp	r24, r18
 2b2:	93 07       	cpc	r25, r19
 2b4:	a4 07       	cpc	r26, r20
 2b6:	b5 07       	cpc	r27, r21
 2b8:	6c f4       	brge	.+26     	; 0x2d4 <A_4_3_3+0x112>
			{
				// Distanz <= 30mm
				Dist = GP2D120_3[0][1];
 2ba:	80 91 64 00 	lds	r24, 0x0064	; 0x800064 <__DATA_REGION_ORIGIN__+0x4>
 2be:	90 91 65 00 	lds	r25, 0x0065	; 0x800065 <__DATA_REGION_ORIGIN__+0x5>
 2c2:	a0 91 66 00 	lds	r26, 0x0066	; 0x800066 <__DATA_REGION_ORIGIN__+0x6>
 2c6:	b0 91 67 00 	lds	r27, 0x0067	; 0x800067 <__DATA_REGION_ORIGIN__+0x7>
 2ca:	89 83       	std	Y+1, r24	; 0x01
 2cc:	9a 83       	std	Y+2, r25	; 0x02
 2ce:	ab 83       	std	Y+3, r26	; 0x03
 2d0:	bc 83       	std	Y+4, r27	; 0x04
 2d2:	b3 c0       	rjmp	.+358    	; 0x43a <__LOCK_REGION_LENGTH__+0x3a>
			}
			
			else
			// Entfernung > Maximalentfernung?
			if (AdcRes < GP2D120_3[16][0])
 2d4:	8e 81       	ldd	r24, Y+6	; 0x06
 2d6:	9f 81       	ldd	r25, Y+7	; 0x07
 2d8:	9c 01       	movw	r18, r24
 2da:	40 e0       	ldi	r20, 0x00	; 0
 2dc:	50 e0       	ldi	r21, 0x00	; 0
 2de:	80 91 e0 00 	lds	r24, 0x00E0	; 0x8000e0 <__DATA_REGION_ORIGIN__+0x80>
 2e2:	90 91 e1 00 	lds	r25, 0x00E1	; 0x8000e1 <__DATA_REGION_ORIGIN__+0x81>
 2e6:	a0 91 e2 00 	lds	r26, 0x00E2	; 0x8000e2 <__DATA_REGION_ORIGIN__+0x82>
 2ea:	b0 91 e3 00 	lds	r27, 0x00E3	; 0x8000e3 <__DATA_REGION_ORIGIN__+0x83>
 2ee:	28 17       	cp	r18, r24
 2f0:	39 07       	cpc	r19, r25
 2f2:	4a 07       	cpc	r20, r26
 2f4:	5b 07       	cpc	r21, r27
 2f6:	6c f4       	brge	.+26     	; 0x312 <A_4_3_3+0x150>
			{
				// Distanz >= 400mm
				Dist = GP2D120_3[16][1];
 2f8:	80 91 e4 00 	lds	r24, 0x00E4	; 0x8000e4 <__DATA_REGION_ORIGIN__+0x84>
 2fc:	90 91 e5 00 	lds	r25, 0x00E5	; 0x8000e5 <__DATA_REGION_ORIGIN__+0x85>
 300:	a0 91 e6 00 	lds	r26, 0x00E6	; 0x8000e6 <__DATA_REGION_ORIGIN__+0x86>
 304:	b0 91 e7 00 	lds	r27, 0x00E7	; 0x8000e7 <__DATA_REGION_ORIGIN__+0x87>
 308:	89 83       	std	Y+1, r24	; 0x01
 30a:	9a 83       	std	Y+2, r25	; 0x02
 30c:	ab 83       	std	Y+3, r26	; 0x03
 30e:	bc 83       	std	Y+4, r27	; 0x04
 310:	94 c0       	rjmp	.+296    	; 0x43a <__LOCK_REGION_LENGTH__+0x3a>
			}
			
			// Entfernung liegt im gültigen Bereich
			else
			{
				uint8_t ind = getInd(AdcRes);
 312:	8e 81       	ldd	r24, Y+6	; 0x06
 314:	9f 81       	ldd	r25, Y+7	; 0x07
 316:	0e 94 b0 00 	call	0x160	; 0x160 <getInd>
 31a:	88 87       	std	Y+8, r24	; 0x08
				Dist = GP2D120_3[ind][1] + ((GP2D120_3[ind+1][1]-GP2D120_3[ind][1])*(AdcRes-GP2D120_3[ind][0])) / (GP2D120_3[ind+1][0]-GP2D120_3[ind][0]);
 31c:	88 85       	ldd	r24, Y+8	; 0x08
 31e:	88 2f       	mov	r24, r24
 320:	90 e0       	ldi	r25, 0x00	; 0
 322:	88 0f       	add	r24, r24
 324:	99 1f       	adc	r25, r25
 326:	88 0f       	add	r24, r24
 328:	99 1f       	adc	r25, r25
 32a:	88 0f       	add	r24, r24
 32c:	99 1f       	adc	r25, r25
 32e:	8c 59       	subi	r24, 0x9C	; 156
 330:	9f 4f       	sbci	r25, 0xFF	; 255
 332:	fc 01       	movw	r30, r24
 334:	e0 80       	ld	r14, Z
 336:	f1 80       	ldd	r15, Z+1	; 0x01
 338:	02 81       	ldd	r16, Z+2	; 0x02
 33a:	13 81       	ldd	r17, Z+3	; 0x03
 33c:	88 85       	ldd	r24, Y+8	; 0x08
 33e:	88 2f       	mov	r24, r24
 340:	90 e0       	ldi	r25, 0x00	; 0
 342:	01 96       	adiw	r24, 0x01	; 1
 344:	88 0f       	add	r24, r24
 346:	99 1f       	adc	r25, r25
 348:	88 0f       	add	r24, r24
 34a:	99 1f       	adc	r25, r25
 34c:	88 0f       	add	r24, r24
 34e:	99 1f       	adc	r25, r25
 350:	8c 59       	subi	r24, 0x9C	; 156
 352:	9f 4f       	sbci	r25, 0xFF	; 255
 354:	fc 01       	movw	r30, r24
 356:	20 81       	ld	r18, Z
 358:	31 81       	ldd	r19, Z+1	; 0x01
 35a:	42 81       	ldd	r20, Z+2	; 0x02
 35c:	53 81       	ldd	r21, Z+3	; 0x03
 35e:	88 85       	ldd	r24, Y+8	; 0x08
 360:	88 2f       	mov	r24, r24
 362:	90 e0       	ldi	r25, 0x00	; 0
 364:	88 0f       	add	r24, r24
 366:	99 1f       	adc	r25, r25
 368:	88 0f       	add	r24, r24
 36a:	99 1f       	adc	r25, r25
 36c:	88 0f       	add	r24, r24
 36e:	99 1f       	adc	r25, r25
 370:	8c 59       	subi	r24, 0x9C	; 156
 372:	9f 4f       	sbci	r25, 0xFF	; 255
 374:	fc 01       	movw	r30, r24
 376:	80 81       	ld	r24, Z
 378:	91 81       	ldd	r25, Z+1	; 0x01
 37a:	a2 81       	ldd	r26, Z+2	; 0x02
 37c:	b3 81       	ldd	r27, Z+3	; 0x03
 37e:	59 01       	movw	r10, r18
 380:	6a 01       	movw	r12, r20
 382:	a8 1a       	sub	r10, r24
 384:	b9 0a       	sbc	r11, r25
 386:	ca 0a       	sbc	r12, r26
 388:	db 0a       	sbc	r13, r27
 38a:	8e 81       	ldd	r24, Y+6	; 0x06
 38c:	9f 81       	ldd	r25, Y+7	; 0x07
 38e:	9c 01       	movw	r18, r24
 390:	40 e0       	ldi	r20, 0x00	; 0
 392:	50 e0       	ldi	r21, 0x00	; 0
 394:	88 85       	ldd	r24, Y+8	; 0x08
 396:	88 2f       	mov	r24, r24
 398:	90 e0       	ldi	r25, 0x00	; 0
 39a:	88 0f       	add	r24, r24
 39c:	99 1f       	adc	r25, r25
 39e:	88 0f       	add	r24, r24
 3a0:	99 1f       	adc	r25, r25
 3a2:	88 0f       	add	r24, r24
 3a4:	99 1f       	adc	r25, r25
 3a6:	80 5a       	subi	r24, 0xA0	; 160
 3a8:	9f 4f       	sbci	r25, 0xFF	; 255
 3aa:	fc 01       	movw	r30, r24
 3ac:	80 81       	ld	r24, Z
 3ae:	91 81       	ldd	r25, Z+1	; 0x01
 3b0:	a2 81       	ldd	r26, Z+2	; 0x02
 3b2:	b3 81       	ldd	r27, Z+3	; 0x03
 3b4:	39 01       	movw	r6, r18
 3b6:	4a 01       	movw	r8, r20
 3b8:	68 1a       	sub	r6, r24
 3ba:	79 0a       	sbc	r7, r25
 3bc:	8a 0a       	sbc	r8, r26
 3be:	9b 0a       	sbc	r9, r27
 3c0:	d4 01       	movw	r26, r8
 3c2:	c3 01       	movw	r24, r6
 3c4:	a6 01       	movw	r20, r12
 3c6:	95 01       	movw	r18, r10
 3c8:	bc 01       	movw	r22, r24
 3ca:	cd 01       	movw	r24, r26
 3cc:	0e 94 b4 03 	call	0x768	; 0x768 <__mulsi3>
 3d0:	5b 01       	movw	r10, r22
 3d2:	6c 01       	movw	r12, r24
 3d4:	88 85       	ldd	r24, Y+8	; 0x08
 3d6:	88 2f       	mov	r24, r24
 3d8:	90 e0       	ldi	r25, 0x00	; 0
 3da:	01 96       	adiw	r24, 0x01	; 1
 3dc:	88 0f       	add	r24, r24
 3de:	99 1f       	adc	r25, r25
 3e0:	88 0f       	add	r24, r24
 3e2:	99 1f       	adc	r25, r25
 3e4:	88 0f       	add	r24, r24
 3e6:	99 1f       	adc	r25, r25
 3e8:	80 5a       	subi	r24, 0xA0	; 160
 3ea:	9f 4f       	sbci	r25, 0xFF	; 255
 3ec:	fc 01       	movw	r30, r24
 3ee:	20 81       	ld	r18, Z
 3f0:	31 81       	ldd	r19, Z+1	; 0x01
 3f2:	42 81       	ldd	r20, Z+2	; 0x02
 3f4:	53 81       	ldd	r21, Z+3	; 0x03
 3f6:	88 85       	ldd	r24, Y+8	; 0x08
 3f8:	88 2f       	mov	r24, r24
 3fa:	90 e0       	ldi	r25, 0x00	; 0
 3fc:	88 0f       	add	r24, r24
 3fe:	99 1f       	adc	r25, r25
 400:	88 0f       	add	r24, r24
 402:	99 1f       	adc	r25, r25
 404:	88 0f       	add	r24, r24
 406:	99 1f       	adc	r25, r25
 408:	80 5a       	subi	r24, 0xA0	; 160
 40a:	9f 4f       	sbci	r25, 0xFF	; 255
 40c:	fc 01       	movw	r30, r24
 40e:	80 81       	ld	r24, Z
 410:	91 81       	ldd	r25, Z+1	; 0x01
 412:	a2 81       	ldd	r26, Z+2	; 0x02
 414:	b3 81       	ldd	r27, Z+3	; 0x03
 416:	28 1b       	sub	r18, r24
 418:	39 0b       	sbc	r19, r25
 41a:	4a 0b       	sbc	r20, r26
 41c:	5b 0b       	sbc	r21, r27
 41e:	c6 01       	movw	r24, r12
 420:	b5 01       	movw	r22, r10
 422:	0e 94 e6 03 	call	0x7cc	; 0x7cc <__divmodsi4>
 426:	da 01       	movw	r26, r20
 428:	c9 01       	movw	r24, r18
 42a:	8e 0d       	add	r24, r14
 42c:	9f 1d       	adc	r25, r15
 42e:	a0 1f       	adc	r26, r16
 430:	b1 1f       	adc	r27, r17
 432:	89 83       	std	Y+1, r24	; 0x01
 434:	9a 83       	std	Y+2, r25	; 0x02
 436:	ab 83       	std	Y+3, r26	; 0x03
 438:	bc 83       	std	Y+4, r27	; 0x04
			}
			
			// Ausgabe der Entfernung in [mm]
			sprintf(String, "Entfernung(1) = %3ld[mm]\n\r", Dist);
 43a:	8c 81       	ldd	r24, Y+4	; 0x04
 43c:	8f 93       	push	r24
 43e:	8b 81       	ldd	r24, Y+3	; 0x03
 440:	8f 93       	push	r24
 442:	8a 81       	ldd	r24, Y+2	; 0x02
 444:	8f 93       	push	r24
 446:	89 81       	ldd	r24, Y+1	; 0x01
 448:	8f 93       	push	r24
 44a:	85 e0       	ldi	r24, 0x05	; 5
 44c:	91 e0       	ldi	r25, 0x01	; 1
 44e:	89 2f       	mov	r24, r25
 450:	8f 93       	push	r24
 452:	85 e0       	ldi	r24, 0x05	; 5
 454:	91 e0       	ldi	r25, 0x01	; 1
 456:	8f 93       	push	r24
 458:	ce 01       	movw	r24, r28
 45a:	09 96       	adiw	r24, 0x09	; 9
 45c:	29 2f       	mov	r18, r25
 45e:	2f 93       	push	r18
 460:	8f 93       	push	r24
 462:	0e 94 1f 04 	call	0x83e	; 0x83e <sprintf>
 466:	8d b7       	in	r24, 0x3d	; 61
 468:	9e b7       	in	r25, 0x3e	; 62
 46a:	08 96       	adiw	r24, 0x08	; 8
 46c:	0f b6       	in	r0, 0x3f	; 63
 46e:	f8 94       	cli
 470:	de bf       	out	0x3e, r29	; 62
 472:	0f be       	out	0x3f, r0	; 63
 474:	cd bf       	out	0x3d, r28	; 61
			UsartPuts(String);
 476:	ce 01       	movw	r24, r28
 478:	09 96       	adiw	r24, 0x09	; 9
 47a:	0e 94 8e 03 	call	0x71c	; 0x71c <UsartPuts>
		}
		
		Wait_x_ms(500);
 47e:	84 ef       	ldi	r24, 0xF4	; 244
 480:	91 e0       	ldi	r25, 0x01	; 1
 482:	0e 94 4b 02 	call	0x496	; 0x496 <Wait_x_ms>
	}
 486:	c9 ce       	rjmp	.-622    	; 0x21a <A_4_3_3+0x58>

00000488 <main>:
#include "Labor_4/MPT_LAB_4_2.h"
#include "Labor_4/MPT_LAB_4_3.h"


int main(void)
{
 488:	cf 93       	push	r28
 48a:	df 93       	push	r29
 48c:	cd b7       	in	r28, 0x3d	; 61
 48e:	de b7       	in	r29, 0x3e	; 62
  // A_4_3_2: Einlesen der Messwerte und Ausgabe mittels 3-stufiger Kennlinie.
  // A_4_3_3: Einlesen der Messwerte und Ausgabe mittels 20-stufiger Kennlinie.
  //------------------------------------------------------------------------------
  //A_4_3_1();
  //A_4_3_2();
  A_4_3_3();
 490:	0e 94 e1 00 	call	0x1c2	; 0x1c2 <A_4_3_3>


  while(1)
  {
      //TODO:: Please write your application code 
  }
 494:	ff cf       	rjmp	.-2      	; 0x494 <main+0xc>

00000496 <Wait_x_ms>:
{
  if (Led == LED_ALL)
    PORTC ^= 0b11111111;
	else
    TBI(PORTC,Led);
}	
 496:	cf 93       	push	r28
 498:	df 93       	push	r29
 49a:	00 d0       	rcall	.+0      	; 0x49c <Wait_x_ms+0x6>
 49c:	00 d0       	rcall	.+0      	; 0x49e <Wait_x_ms+0x8>
 49e:	00 d0       	rcall	.+0      	; 0x4a0 <Wait_x_ms+0xa>
 4a0:	cd b7       	in	r28, 0x3d	; 61
 4a2:	de b7       	in	r29, 0x3e	; 62
 4a4:	9e 83       	std	Y+6, r25	; 0x06
 4a6:	8d 83       	std	Y+5, r24	; 0x05
 4a8:	1c 82       	std	Y+4, r1	; 0x04
 4aa:	1b 82       	std	Y+3, r1	; 0x03
 4ac:	12 c0       	rjmp	.+36     	; 0x4d2 <Wait_x_ms+0x3c>
 4ae:	1a 82       	std	Y+2, r1	; 0x02
 4b0:	19 82       	std	Y+1, r1	; 0x01
 4b2:	05 c0       	rjmp	.+10     	; 0x4be <Wait_x_ms+0x28>
 4b4:	89 81       	ldd	r24, Y+1	; 0x01
 4b6:	9a 81       	ldd	r25, Y+2	; 0x02
 4b8:	01 96       	adiw	r24, 0x01	; 1
 4ba:	9a 83       	std	Y+2, r25	; 0x02
 4bc:	89 83       	std	Y+1, r24	; 0x01
 4be:	89 81       	ldd	r24, Y+1	; 0x01
 4c0:	9a 81       	ldd	r25, Y+2	; 0x02
 4c2:	88 35       	cpi	r24, 0x58	; 88
 4c4:	92 40       	sbci	r25, 0x02	; 2
 4c6:	b0 f3       	brcs	.-20     	; 0x4b4 <Wait_x_ms+0x1e>
 4c8:	8b 81       	ldd	r24, Y+3	; 0x03
 4ca:	9c 81       	ldd	r25, Y+4	; 0x04
 4cc:	01 96       	adiw	r24, 0x01	; 1
 4ce:	9c 83       	std	Y+4, r25	; 0x04
 4d0:	8b 83       	std	Y+3, r24	; 0x03
 4d2:	2b 81       	ldd	r18, Y+3	; 0x03
 4d4:	3c 81       	ldd	r19, Y+4	; 0x04
 4d6:	8d 81       	ldd	r24, Y+5	; 0x05
 4d8:	9e 81       	ldd	r25, Y+6	; 0x06
 4da:	28 17       	cp	r18, r24
 4dc:	39 07       	cpc	r19, r25
 4de:	38 f3       	brcs	.-50     	; 0x4ae <Wait_x_ms+0x18>
 4e0:	00 00       	nop
 4e2:	26 96       	adiw	r28, 0x06	; 6
 4e4:	0f b6       	in	r0, 0x3f	; 63
 4e6:	f8 94       	cli
 4e8:	de bf       	out	0x3e, r29	; 62
 4ea:	0f be       	out	0x3f, r0	; 63
 4ec:	cd bf       	out	0x3d, r28	; 61
 4ee:	df 91       	pop	r29
 4f0:	cf 91       	pop	r28
 4f2:	08 95       	ret

000004f4 <UsartInit>:
//#endif


void UsartInit(uint8_t CharBits, uint8_t ParBit, uint8_t StopBits, uint32_t Baudrate)
{
 4f4:	0f 93       	push	r16
 4f6:	1f 93       	push	r17
 4f8:	cf 93       	push	r28
 4fa:	df 93       	push	r29
 4fc:	cd b7       	in	r28, 0x3d	; 61
 4fe:	de b7       	in	r29, 0x3e	; 62
 500:	27 97       	sbiw	r28, 0x07	; 7
 502:	0f b6       	in	r0, 0x3f	; 63
 504:	f8 94       	cli
 506:	de bf       	out	0x3e, r29	; 62
 508:	0f be       	out	0x3f, r0	; 63
 50a:	cd bf       	out	0x3d, r28	; 61
 50c:	89 83       	std	Y+1, r24	; 0x01
 50e:	6a 83       	std	Y+2, r22	; 0x02
 510:	4b 83       	std	Y+3, r20	; 0x03
 512:	0c 83       	std	Y+4, r16	; 0x04
 514:	1d 83       	std	Y+5, r17	; 0x05
 516:	2e 83       	std	Y+6, r18	; 0x06
 518:	3f 83       	std	Y+7, r19	; 0x07
	// Vorhandensein und Art des Paritäts-Bits festlegen:
	// Gerade   Parität: Anzahl der '1' wird auf gerade Anzahl ergänzt
	// Ungerade Parität: Anzahl der '1' wird auf ungerade Anzahl ergänzt
	// Keine    Parität: Paritäts-Bit entfällt
  if (ParBit == USART_EVEN_PARITY)
 51a:	8a 81       	ldd	r24, Y+2	; 0x02
 51c:	81 30       	cpi	r24, 0x01	; 1
 51e:	51 f4       	brne	.+20     	; 0x534 <UsartInit+0x40>
    UCSRC |= (1 << UPM1) | (0 << UPM0);  // äquivalent: UCSRC |= (1 << UPM1);
 520:	80 e4       	ldi	r24, 0x40	; 64
 522:	90 e0       	ldi	r25, 0x00	; 0
 524:	20 e4       	ldi	r18, 0x40	; 64
 526:	30 e0       	ldi	r19, 0x00	; 0
 528:	f9 01       	movw	r30, r18
 52a:	20 81       	ld	r18, Z
 52c:	20 62       	ori	r18, 0x20	; 32
 52e:	fc 01       	movw	r30, r24
 530:	20 83       	st	Z, r18
 532:	15 c0       	rjmp	.+42     	; 0x55e <UsartInit+0x6a>
	else
  if (ParBit == USART_ODD_PARITY)
 534:	8a 81       	ldd	r24, Y+2	; 0x02
 536:	82 30       	cpi	r24, 0x02	; 2
 538:	51 f4       	brne	.+20     	; 0x54e <UsartInit+0x5a>
    UCSRC |= (1 << UPM1) | (1 << UPM0);
 53a:	80 e4       	ldi	r24, 0x40	; 64
 53c:	90 e0       	ldi	r25, 0x00	; 0
 53e:	20 e4       	ldi	r18, 0x40	; 64
 540:	30 e0       	ldi	r19, 0x00	; 0
 542:	f9 01       	movw	r30, r18
 544:	20 81       	ld	r18, Z
 546:	20 63       	ori	r18, 0x30	; 48
 548:	fc 01       	movw	r30, r24
 54a:	20 83       	st	Z, r18
 54c:	08 c0       	rjmp	.+16     	; 0x55e <UsartInit+0x6a>
	else
    UCSRC |= (0 << UPM1) | (0 << UPM0);  // brauchen wir eigentlich nicht...
 54e:	80 e4       	ldi	r24, 0x40	; 64
 550:	90 e0       	ldi	r25, 0x00	; 0
 552:	20 e4       	ldi	r18, 0x40	; 64
 554:	30 e0       	ldi	r19, 0x00	; 0
 556:	f9 01       	movw	r30, r18
 558:	20 81       	ld	r18, Z
 55a:	fc 01       	movw	r30, r24
 55c:	20 83       	st	Z, r18

  // Anzahl der Stop-Bits festlegen: 1 oder 2
  if (StopBits == 1)
 55e:	8b 81       	ldd	r24, Y+3	; 0x03
 560:	81 30       	cpi	r24, 0x01	; 1
 562:	49 f4       	brne	.+18     	; 0x576 <UsartInit+0x82>
    UCSRC |= (0 << USBS);
 564:	80 e4       	ldi	r24, 0x40	; 64
 566:	90 e0       	ldi	r25, 0x00	; 0
 568:	20 e4       	ldi	r18, 0x40	; 64
 56a:	30 e0       	ldi	r19, 0x00	; 0
 56c:	f9 01       	movw	r30, r18
 56e:	20 81       	ld	r18, Z
 570:	fc 01       	movw	r30, r24
 572:	20 83       	st	Z, r18
 574:	0c c0       	rjmp	.+24     	; 0x58e <UsartInit+0x9a>
  else
  if (StopBits == 2)
 576:	8b 81       	ldd	r24, Y+3	; 0x03
 578:	82 30       	cpi	r24, 0x02	; 2
 57a:	49 f4       	brne	.+18     	; 0x58e <UsartInit+0x9a>
    UCSRC |= (1 << USBS);
 57c:	80 e4       	ldi	r24, 0x40	; 64
 57e:	90 e0       	ldi	r25, 0x00	; 0
 580:	20 e4       	ldi	r18, 0x40	; 64
 582:	30 e0       	ldi	r19, 0x00	; 0
 584:	f9 01       	movw	r30, r18
 586:	20 81       	ld	r18, Z
 588:	28 60       	ori	r18, 0x08	; 8
 58a:	fc 01       	movw	r30, r24
 58c:	20 83       	st	Z, r18
  // Anzahl der Zeichenbits: 5..9
  // Üblich sind 8 Bits / Zeichen.
  // Bei 9 Zeichenbits muss man die besondere Behandlung des 9.Bits beim
  // Lesen und Schreiben beachten. Diese ist in unseren Lese- und Schreibroutinen
  // nicht berücksichtigt.
  switch (CharBits)
 58e:	89 81       	ldd	r24, Y+1	; 0x01
 590:	88 2f       	mov	r24, r24
 592:	90 e0       	ldi	r25, 0x00	; 0
 594:	87 30       	cpi	r24, 0x07	; 7
 596:	91 05       	cpc	r25, r1
 598:	c9 f0       	breq	.+50     	; 0x5cc <UsartInit+0xd8>
 59a:	88 30       	cpi	r24, 0x08	; 8
 59c:	91 05       	cpc	r25, r1
 59e:	34 f4       	brge	.+12     	; 0x5ac <UsartInit+0xb8>
 5a0:	85 30       	cpi	r24, 0x05	; 5
 5a2:	91 05       	cpc	r25, r1
 5a4:	d1 f1       	breq	.+116    	; 0x61a <UsartInit+0x126>
 5a6:	06 97       	sbiw	r24, 0x06	; 6
 5a8:	39 f0       	breq	.+14     	; 0x5b8 <UsartInit+0xc4>
 5aa:	38 c0       	rjmp	.+112    	; 0x61c <UsartInit+0x128>
 5ac:	88 30       	cpi	r24, 0x08	; 8
 5ae:	91 05       	cpc	r25, r1
 5b0:	b9 f0       	breq	.+46     	; 0x5e0 <UsartInit+0xec>
 5b2:	09 97       	sbiw	r24, 0x09	; 9
 5b4:	f9 f0       	breq	.+62     	; 0x5f4 <UsartInit+0x100>
 5b6:	32 c0       	rjmp	.+100    	; 0x61c <UsartInit+0x128>
  {
    case 5: // 5 Zeichenbits
      break;

    case 6: // 6 Zeichenbits
      UCSRC |= (1 << UCSZ0);
 5b8:	80 e4       	ldi	r24, 0x40	; 64
 5ba:	90 e0       	ldi	r25, 0x00	; 0
 5bc:	20 e4       	ldi	r18, 0x40	; 64
 5be:	30 e0       	ldi	r19, 0x00	; 0
 5c0:	f9 01       	movw	r30, r18
 5c2:	20 81       	ld	r18, Z
 5c4:	22 60       	ori	r18, 0x02	; 2
 5c6:	fc 01       	movw	r30, r24
 5c8:	20 83       	st	Z, r18
      break;
 5ca:	28 c0       	rjmp	.+80     	; 0x61c <UsartInit+0x128>

    case 7: // 7 Zeichenbits
      UCSRC |= (1 << UCSZ1);
 5cc:	80 e4       	ldi	r24, 0x40	; 64
 5ce:	90 e0       	ldi	r25, 0x00	; 0
 5d0:	20 e4       	ldi	r18, 0x40	; 64
 5d2:	30 e0       	ldi	r19, 0x00	; 0
 5d4:	f9 01       	movw	r30, r18
 5d6:	20 81       	ld	r18, Z
 5d8:	24 60       	ori	r18, 0x04	; 4
 5da:	fc 01       	movw	r30, r24
 5dc:	20 83       	st	Z, r18
      break;
 5de:	1e c0       	rjmp	.+60     	; 0x61c <UsartInit+0x128>

    case 8: // 8 Zeichenbits
      UCSRC |= (1 << UCSZ1) | (1 << UCSZ0);
 5e0:	80 e4       	ldi	r24, 0x40	; 64
 5e2:	90 e0       	ldi	r25, 0x00	; 0
 5e4:	20 e4       	ldi	r18, 0x40	; 64
 5e6:	30 e0       	ldi	r19, 0x00	; 0
 5e8:	f9 01       	movw	r30, r18
 5ea:	20 81       	ld	r18, Z
 5ec:	26 60       	ori	r18, 0x06	; 6
 5ee:	fc 01       	movw	r30, r24
 5f0:	20 83       	st	Z, r18
      break;
 5f2:	14 c0       	rjmp	.+40     	; 0x61c <UsartInit+0x128>

    case 9: // 9 Zeichenbits
      UCSRB |= (1 << UCSZ2);
 5f4:	8a e2       	ldi	r24, 0x2A	; 42
 5f6:	90 e0       	ldi	r25, 0x00	; 0
 5f8:	2a e2       	ldi	r18, 0x2A	; 42
 5fa:	30 e0       	ldi	r19, 0x00	; 0
 5fc:	f9 01       	movw	r30, r18
 5fe:	20 81       	ld	r18, Z
 600:	24 60       	ori	r18, 0x04	; 4
 602:	fc 01       	movw	r30, r24
 604:	20 83       	st	Z, r18
      UCSRC |= (1 << UCSZ1) | (1 << UCSZ0);
 606:	80 e4       	ldi	r24, 0x40	; 64
 608:	90 e0       	ldi	r25, 0x00	; 0
 60a:	20 e4       	ldi	r18, 0x40	; 64
 60c:	30 e0       	ldi	r19, 0x00	; 0
 60e:	f9 01       	movw	r30, r18
 610:	20 81       	ld	r18, Z
 612:	26 60       	ori	r18, 0x06	; 6
 614:	fc 01       	movw	r30, r24
 616:	20 83       	st	Z, r18
      break;
 618:	01 c0       	rjmp	.+2      	; 0x61c <UsartInit+0x128>
  // Lesen und Schreiben beachten. Diese ist in unseren Lese- und Schreibroutinen
  // nicht berücksichtigt.
  switch (CharBits)
  {
    case 5: // 5 Zeichenbits
      break;
 61a:	00 00       	nop
  // Bei der Wahl der Bitrate muss der relative Bitratenfehler
  // aufgrund der Taktfrequenz des uC beachtet werden.
  // Dieser wirkt sich bei höheren Bitraten stärker aus, daher
  // darf bei großem Bitratenfehler die Bitrate nicht zu groß
  // gewählt werden.
  UBRRL = (F_CPU/(16*Baudrate)-1) % 256;
 61c:	09 e2       	ldi	r16, 0x29	; 41
 61e:	10 e0       	ldi	r17, 0x00	; 0
 620:	8c 81       	ldd	r24, Y+4	; 0x04
 622:	9d 81       	ldd	r25, Y+5	; 0x05
 624:	ae 81       	ldd	r26, Y+6	; 0x06
 626:	bf 81       	ldd	r27, Y+7	; 0x07
 628:	88 0f       	add	r24, r24
 62a:	99 1f       	adc	r25, r25
 62c:	aa 1f       	adc	r26, r26
 62e:	bb 1f       	adc	r27, r27
 630:	88 0f       	add	r24, r24
 632:	99 1f       	adc	r25, r25
 634:	aa 1f       	adc	r26, r26
 636:	bb 1f       	adc	r27, r27
 638:	88 0f       	add	r24, r24
 63a:	99 1f       	adc	r25, r25
 63c:	aa 1f       	adc	r26, r26
 63e:	bb 1f       	adc	r27, r27
 640:	88 0f       	add	r24, r24
 642:	99 1f       	adc	r25, r25
 644:	aa 1f       	adc	r26, r26
 646:	bb 1f       	adc	r27, r27
 648:	9c 01       	movw	r18, r24
 64a:	ad 01       	movw	r20, r26
 64c:	80 e0       	ldi	r24, 0x00	; 0
 64e:	94 e2       	ldi	r25, 0x24	; 36
 650:	a4 ef       	ldi	r26, 0xF4	; 244
 652:	b0 e0       	ldi	r27, 0x00	; 0
 654:	bc 01       	movw	r22, r24
 656:	cd 01       	movw	r24, r26
 658:	0e 94 c4 03 	call	0x788	; 0x788 <__udivmodsi4>
 65c:	da 01       	movw	r26, r20
 65e:	c9 01       	movw	r24, r18
 660:	81 50       	subi	r24, 0x01	; 1
 662:	f8 01       	movw	r30, r16
 664:	80 83       	st	Z, r24
  UBRRH = (F_CPU/(16*Baudrate)-1) / 256;
 666:	00 e4       	ldi	r16, 0x40	; 64
 668:	10 e0       	ldi	r17, 0x00	; 0
 66a:	8c 81       	ldd	r24, Y+4	; 0x04
 66c:	9d 81       	ldd	r25, Y+5	; 0x05
 66e:	ae 81       	ldd	r26, Y+6	; 0x06
 670:	bf 81       	ldd	r27, Y+7	; 0x07
 672:	88 0f       	add	r24, r24
 674:	99 1f       	adc	r25, r25
 676:	aa 1f       	adc	r26, r26
 678:	bb 1f       	adc	r27, r27
 67a:	88 0f       	add	r24, r24
 67c:	99 1f       	adc	r25, r25
 67e:	aa 1f       	adc	r26, r26
 680:	bb 1f       	adc	r27, r27
 682:	88 0f       	add	r24, r24
 684:	99 1f       	adc	r25, r25
 686:	aa 1f       	adc	r26, r26
 688:	bb 1f       	adc	r27, r27
 68a:	88 0f       	add	r24, r24
 68c:	99 1f       	adc	r25, r25
 68e:	aa 1f       	adc	r26, r26
 690:	bb 1f       	adc	r27, r27
 692:	9c 01       	movw	r18, r24
 694:	ad 01       	movw	r20, r26
 696:	80 e0       	ldi	r24, 0x00	; 0
 698:	94 e2       	ldi	r25, 0x24	; 36
 69a:	a4 ef       	ldi	r26, 0xF4	; 244
 69c:	b0 e0       	ldi	r27, 0x00	; 0
 69e:	bc 01       	movw	r22, r24
 6a0:	cd 01       	movw	r24, r26
 6a2:	0e 94 c4 03 	call	0x788	; 0x788 <__udivmodsi4>
 6a6:	da 01       	movw	r26, r20
 6a8:	c9 01       	movw	r24, r18
 6aa:	01 97       	sbiw	r24, 0x01	; 1
 6ac:	a1 09       	sbc	r26, r1
 6ae:	b1 09       	sbc	r27, r1
 6b0:	89 2f       	mov	r24, r25
 6b2:	9a 2f       	mov	r25, r26
 6b4:	ab 2f       	mov	r26, r27
 6b6:	bb 27       	eor	r27, r27
 6b8:	f8 01       	movw	r30, r16
 6ba:	80 83       	st	Z, r24

  // Freigabe der Sende-/Empfangs-Kanäle und uC-Pins
  UCSRB |= (1 << RXEN) | (1 << TXEN);
 6bc:	8a e2       	ldi	r24, 0x2A	; 42
 6be:	90 e0       	ldi	r25, 0x00	; 0
 6c0:	2a e2       	ldi	r18, 0x2A	; 42
 6c2:	30 e0       	ldi	r19, 0x00	; 0
 6c4:	f9 01       	movw	r30, r18
 6c6:	20 81       	ld	r18, Z
 6c8:	28 61       	ori	r18, 0x18	; 24
 6ca:	fc 01       	movw	r30, r24
 6cc:	20 83       	st	Z, r18
}
 6ce:	00 00       	nop
 6d0:	27 96       	adiw	r28, 0x07	; 7
 6d2:	0f b6       	in	r0, 0x3f	; 63
 6d4:	f8 94       	cli
 6d6:	de bf       	out	0x3e, r29	; 62
 6d8:	0f be       	out	0x3f, r0	; 63
 6da:	cd bf       	out	0x3d, r28	; 61
 6dc:	df 91       	pop	r29
 6de:	cf 91       	pop	r28
 6e0:	1f 91       	pop	r17
 6e2:	0f 91       	pop	r16
 6e4:	08 95       	ret

000006e6 <UsartPutc>:

/*
 *  1 Zeichen auf USART-Kanal ausgeben
 */
void UsartPutc(uint8_t Data)
{
 6e6:	cf 93       	push	r28
 6e8:	df 93       	push	r29
 6ea:	1f 92       	push	r1
 6ec:	cd b7       	in	r28, 0x3d	; 61
 6ee:	de b7       	in	r29, 0x3e	; 62
 6f0:	89 83       	std	Y+1, r24	; 0x01
  while (!(UCSRA & (1 << UDRE)));
 6f2:	00 00       	nop
 6f4:	8b e2       	ldi	r24, 0x2B	; 43
 6f6:	90 e0       	ldi	r25, 0x00	; 0
 6f8:	fc 01       	movw	r30, r24
 6fa:	80 81       	ld	r24, Z
 6fc:	88 2f       	mov	r24, r24
 6fe:	90 e0       	ldi	r25, 0x00	; 0
 700:	80 72       	andi	r24, 0x20	; 32
 702:	99 27       	eor	r25, r25
 704:	89 2b       	or	r24, r25
 706:	b1 f3       	breq	.-20     	; 0x6f4 <UsartPutc+0xe>
  UDR = Data;
 708:	8c e2       	ldi	r24, 0x2C	; 44
 70a:	90 e0       	ldi	r25, 0x00	; 0
 70c:	29 81       	ldd	r18, Y+1	; 0x01
 70e:	fc 01       	movw	r30, r24
 710:	20 83       	st	Z, r18
}
 712:	00 00       	nop
 714:	0f 90       	pop	r0
 716:	df 91       	pop	r29
 718:	cf 91       	pop	r28
 71a:	08 95       	ret

0000071c <UsartPuts>:

/*
 *  String auf USART-Kanal ausgeben
 */
void UsartPuts(char* pString)
{
 71c:	cf 93       	push	r28
 71e:	df 93       	push	r29
 720:	00 d0       	rcall	.+0      	; 0x722 <UsartPuts+0x6>
 722:	00 d0       	rcall	.+0      	; 0x724 <UsartPuts+0x8>
 724:	cd b7       	in	r28, 0x3d	; 61
 726:	de b7       	in	r29, 0x3e	; 62
 728:	9c 83       	std	Y+4, r25	; 0x04
 72a:	8b 83       	std	Y+3, r24	; 0x03
	char* pData = pString;
 72c:	8b 81       	ldd	r24, Y+3	; 0x03
 72e:	9c 81       	ldd	r25, Y+4	; 0x04
 730:	9a 83       	std	Y+2, r25	; 0x02
 732:	89 83       	std	Y+1, r24	; 0x01
	
  while (*pData != 0)
 734:	0b c0       	rjmp	.+22     	; 0x74c <UsartPuts+0x30>
  {
    UsartPutc(*pData);
 736:	89 81       	ldd	r24, Y+1	; 0x01
 738:	9a 81       	ldd	r25, Y+2	; 0x02
 73a:	fc 01       	movw	r30, r24
 73c:	80 81       	ld	r24, Z
 73e:	0e 94 73 03 	call	0x6e6	; 0x6e6 <UsartPutc>
	  pData++;
 742:	89 81       	ldd	r24, Y+1	; 0x01
 744:	9a 81       	ldd	r25, Y+2	; 0x02
 746:	01 96       	adiw	r24, 0x01	; 1
 748:	9a 83       	std	Y+2, r25	; 0x02
 74a:	89 83       	std	Y+1, r24	; 0x01
 */
void UsartPuts(char* pString)
{
	char* pData = pString;
	
  while (*pData != 0)
 74c:	89 81       	ldd	r24, Y+1	; 0x01
 74e:	9a 81       	ldd	r25, Y+2	; 0x02
 750:	fc 01       	movw	r30, r24
 752:	80 81       	ld	r24, Z
 754:	88 23       	and	r24, r24
 756:	79 f7       	brne	.-34     	; 0x736 <UsartPuts+0x1a>
  {
    UsartPutc(*pData);
	  pData++;
  }	
}
 758:	00 00       	nop
 75a:	0f 90       	pop	r0
 75c:	0f 90       	pop	r0
 75e:	0f 90       	pop	r0
 760:	0f 90       	pop	r0
 762:	df 91       	pop	r29
 764:	cf 91       	pop	r28
 766:	08 95       	ret

00000768 <__mulsi3>:
 768:	db 01       	movw	r26, r22
 76a:	8f 93       	push	r24
 76c:	9f 93       	push	r25
 76e:	0e 94 14 04 	call	0x828	; 0x828 <__muluhisi3>
 772:	bf 91       	pop	r27
 774:	af 91       	pop	r26
 776:	a2 9f       	mul	r26, r18
 778:	80 0d       	add	r24, r0
 77a:	91 1d       	adc	r25, r1
 77c:	a3 9f       	mul	r26, r19
 77e:	90 0d       	add	r25, r0
 780:	b2 9f       	mul	r27, r18
 782:	90 0d       	add	r25, r0
 784:	11 24       	eor	r1, r1
 786:	08 95       	ret

00000788 <__udivmodsi4>:
 788:	a1 e2       	ldi	r26, 0x21	; 33
 78a:	1a 2e       	mov	r1, r26
 78c:	aa 1b       	sub	r26, r26
 78e:	bb 1b       	sub	r27, r27
 790:	fd 01       	movw	r30, r26
 792:	0d c0       	rjmp	.+26     	; 0x7ae <__udivmodsi4_ep>

00000794 <__udivmodsi4_loop>:
 794:	aa 1f       	adc	r26, r26
 796:	bb 1f       	adc	r27, r27
 798:	ee 1f       	adc	r30, r30
 79a:	ff 1f       	adc	r31, r31
 79c:	a2 17       	cp	r26, r18
 79e:	b3 07       	cpc	r27, r19
 7a0:	e4 07       	cpc	r30, r20
 7a2:	f5 07       	cpc	r31, r21
 7a4:	20 f0       	brcs	.+8      	; 0x7ae <__udivmodsi4_ep>
 7a6:	a2 1b       	sub	r26, r18
 7a8:	b3 0b       	sbc	r27, r19
 7aa:	e4 0b       	sbc	r30, r20
 7ac:	f5 0b       	sbc	r31, r21

000007ae <__udivmodsi4_ep>:
 7ae:	66 1f       	adc	r22, r22
 7b0:	77 1f       	adc	r23, r23
 7b2:	88 1f       	adc	r24, r24
 7b4:	99 1f       	adc	r25, r25
 7b6:	1a 94       	dec	r1
 7b8:	69 f7       	brne	.-38     	; 0x794 <__udivmodsi4_loop>
 7ba:	60 95       	com	r22
 7bc:	70 95       	com	r23
 7be:	80 95       	com	r24
 7c0:	90 95       	com	r25
 7c2:	9b 01       	movw	r18, r22
 7c4:	ac 01       	movw	r20, r24
 7c6:	bd 01       	movw	r22, r26
 7c8:	cf 01       	movw	r24, r30
 7ca:	08 95       	ret

000007cc <__divmodsi4>:
 7cc:	05 2e       	mov	r0, r21
 7ce:	97 fb       	bst	r25, 7
 7d0:	1e f4       	brtc	.+6      	; 0x7d8 <__divmodsi4+0xc>
 7d2:	00 94       	com	r0
 7d4:	0e 94 fd 03 	call	0x7fa	; 0x7fa <__negsi2>
 7d8:	57 fd       	sbrc	r21, 7
 7da:	07 d0       	rcall	.+14     	; 0x7ea <__divmodsi4_neg2>
 7dc:	0e 94 c4 03 	call	0x788	; 0x788 <__udivmodsi4>
 7e0:	07 fc       	sbrc	r0, 7
 7e2:	03 d0       	rcall	.+6      	; 0x7ea <__divmodsi4_neg2>
 7e4:	4e f4       	brtc	.+18     	; 0x7f8 <__divmodsi4_exit>
 7e6:	0c 94 fd 03 	jmp	0x7fa	; 0x7fa <__negsi2>

000007ea <__divmodsi4_neg2>:
 7ea:	50 95       	com	r21
 7ec:	40 95       	com	r20
 7ee:	30 95       	com	r19
 7f0:	21 95       	neg	r18
 7f2:	3f 4f       	sbci	r19, 0xFF	; 255
 7f4:	4f 4f       	sbci	r20, 0xFF	; 255
 7f6:	5f 4f       	sbci	r21, 0xFF	; 255

000007f8 <__divmodsi4_exit>:
 7f8:	08 95       	ret

000007fa <__negsi2>:
 7fa:	90 95       	com	r25
 7fc:	80 95       	com	r24
 7fe:	70 95       	com	r23
 800:	61 95       	neg	r22
 802:	7f 4f       	sbci	r23, 0xFF	; 255
 804:	8f 4f       	sbci	r24, 0xFF	; 255
 806:	9f 4f       	sbci	r25, 0xFF	; 255
 808:	08 95       	ret

0000080a <__umulhisi3>:
 80a:	a2 9f       	mul	r26, r18
 80c:	b0 01       	movw	r22, r0
 80e:	b3 9f       	mul	r27, r19
 810:	c0 01       	movw	r24, r0
 812:	a3 9f       	mul	r26, r19
 814:	70 0d       	add	r23, r0
 816:	81 1d       	adc	r24, r1
 818:	11 24       	eor	r1, r1
 81a:	91 1d       	adc	r25, r1
 81c:	b2 9f       	mul	r27, r18
 81e:	70 0d       	add	r23, r0
 820:	81 1d       	adc	r24, r1
 822:	11 24       	eor	r1, r1
 824:	91 1d       	adc	r25, r1
 826:	08 95       	ret

00000828 <__muluhisi3>:
 828:	0e 94 05 04 	call	0x80a	; 0x80a <__umulhisi3>
 82c:	a5 9f       	mul	r26, r21
 82e:	90 0d       	add	r25, r0
 830:	b4 9f       	mul	r27, r20
 832:	90 0d       	add	r25, r0
 834:	a4 9f       	mul	r26, r20
 836:	80 0d       	add	r24, r0
 838:	91 1d       	adc	r25, r1
 83a:	11 24       	eor	r1, r1
 83c:	08 95       	ret

0000083e <sprintf>:
 83e:	ae e0       	ldi	r26, 0x0E	; 14
 840:	b0 e0       	ldi	r27, 0x00	; 0
 842:	e5 e2       	ldi	r30, 0x25	; 37
 844:	f4 e0       	ldi	r31, 0x04	; 4
 846:	0c 94 e0 06 	jmp	0xdc0	; 0xdc0 <__prologue_saves__+0x1c>
 84a:	0d 89       	ldd	r16, Y+21	; 0x15
 84c:	1e 89       	ldd	r17, Y+22	; 0x16
 84e:	86 e0       	ldi	r24, 0x06	; 6
 850:	8c 83       	std	Y+4, r24	; 0x04
 852:	1a 83       	std	Y+2, r17	; 0x02
 854:	09 83       	std	Y+1, r16	; 0x01
 856:	8f ef       	ldi	r24, 0xFF	; 255
 858:	9f e7       	ldi	r25, 0x7F	; 127
 85a:	9e 83       	std	Y+6, r25	; 0x06
 85c:	8d 83       	std	Y+5, r24	; 0x05
 85e:	ae 01       	movw	r20, r28
 860:	47 5e       	subi	r20, 0xE7	; 231
 862:	5f 4f       	sbci	r21, 0xFF	; 255
 864:	6f 89       	ldd	r22, Y+23	; 0x17
 866:	78 8d       	ldd	r23, Y+24	; 0x18
 868:	ce 01       	movw	r24, r28
 86a:	01 96       	adiw	r24, 0x01	; 1
 86c:	0e 94 41 04 	call	0x882	; 0x882 <vfprintf>
 870:	ef 81       	ldd	r30, Y+7	; 0x07
 872:	f8 85       	ldd	r31, Y+8	; 0x08
 874:	e0 0f       	add	r30, r16
 876:	f1 1f       	adc	r31, r17
 878:	10 82       	st	Z, r1
 87a:	2e 96       	adiw	r28, 0x0e	; 14
 87c:	e4 e0       	ldi	r30, 0x04	; 4
 87e:	0c 94 fc 06 	jmp	0xdf8	; 0xdf8 <__epilogue_restores__+0x1c>

00000882 <vfprintf>:
 882:	ab e0       	ldi	r26, 0x0B	; 11
 884:	b0 e0       	ldi	r27, 0x00	; 0
 886:	e7 e4       	ldi	r30, 0x47	; 71
 888:	f4 e0       	ldi	r31, 0x04	; 4
 88a:	0c 94 d2 06 	jmp	0xda4	; 0xda4 <__prologue_saves__>
 88e:	6c 01       	movw	r12, r24
 890:	7b 01       	movw	r14, r22
 892:	8a 01       	movw	r16, r20
 894:	fc 01       	movw	r30, r24
 896:	17 82       	std	Z+7, r1	; 0x07
 898:	16 82       	std	Z+6, r1	; 0x06
 89a:	83 81       	ldd	r24, Z+3	; 0x03
 89c:	81 ff       	sbrs	r24, 1
 89e:	cc c1       	rjmp	.+920    	; 0xc38 <vfprintf+0x3b6>
 8a0:	ce 01       	movw	r24, r28
 8a2:	01 96       	adiw	r24, 0x01	; 1
 8a4:	3c 01       	movw	r6, r24
 8a6:	f6 01       	movw	r30, r12
 8a8:	93 81       	ldd	r25, Z+3	; 0x03
 8aa:	f7 01       	movw	r30, r14
 8ac:	93 fd       	sbrc	r25, 3
 8ae:	85 91       	lpm	r24, Z+
 8b0:	93 ff       	sbrs	r25, 3
 8b2:	81 91       	ld	r24, Z+
 8b4:	7f 01       	movw	r14, r30
 8b6:	88 23       	and	r24, r24
 8b8:	09 f4       	brne	.+2      	; 0x8bc <vfprintf+0x3a>
 8ba:	ba c1       	rjmp	.+884    	; 0xc30 <vfprintf+0x3ae>
 8bc:	85 32       	cpi	r24, 0x25	; 37
 8be:	39 f4       	brne	.+14     	; 0x8ce <vfprintf+0x4c>
 8c0:	93 fd       	sbrc	r25, 3
 8c2:	85 91       	lpm	r24, Z+
 8c4:	93 ff       	sbrs	r25, 3
 8c6:	81 91       	ld	r24, Z+
 8c8:	7f 01       	movw	r14, r30
 8ca:	85 32       	cpi	r24, 0x25	; 37
 8cc:	29 f4       	brne	.+10     	; 0x8d8 <vfprintf+0x56>
 8ce:	b6 01       	movw	r22, r12
 8d0:	90 e0       	ldi	r25, 0x00	; 0
 8d2:	0e 94 38 06 	call	0xc70	; 0xc70 <fputc>
 8d6:	e7 cf       	rjmp	.-50     	; 0x8a6 <vfprintf+0x24>
 8d8:	91 2c       	mov	r9, r1
 8da:	21 2c       	mov	r2, r1
 8dc:	31 2c       	mov	r3, r1
 8de:	ff e1       	ldi	r31, 0x1F	; 31
 8e0:	f3 15       	cp	r31, r3
 8e2:	d8 f0       	brcs	.+54     	; 0x91a <vfprintf+0x98>
 8e4:	8b 32       	cpi	r24, 0x2B	; 43
 8e6:	79 f0       	breq	.+30     	; 0x906 <vfprintf+0x84>
 8e8:	38 f4       	brcc	.+14     	; 0x8f8 <vfprintf+0x76>
 8ea:	80 32       	cpi	r24, 0x20	; 32
 8ec:	79 f0       	breq	.+30     	; 0x90c <vfprintf+0x8a>
 8ee:	83 32       	cpi	r24, 0x23	; 35
 8f0:	a1 f4       	brne	.+40     	; 0x91a <vfprintf+0x98>
 8f2:	23 2d       	mov	r18, r3
 8f4:	20 61       	ori	r18, 0x10	; 16
 8f6:	1d c0       	rjmp	.+58     	; 0x932 <vfprintf+0xb0>
 8f8:	8d 32       	cpi	r24, 0x2D	; 45
 8fa:	61 f0       	breq	.+24     	; 0x914 <vfprintf+0x92>
 8fc:	80 33       	cpi	r24, 0x30	; 48
 8fe:	69 f4       	brne	.+26     	; 0x91a <vfprintf+0x98>
 900:	23 2d       	mov	r18, r3
 902:	21 60       	ori	r18, 0x01	; 1
 904:	16 c0       	rjmp	.+44     	; 0x932 <vfprintf+0xb0>
 906:	83 2d       	mov	r24, r3
 908:	82 60       	ori	r24, 0x02	; 2
 90a:	38 2e       	mov	r3, r24
 90c:	e3 2d       	mov	r30, r3
 90e:	e4 60       	ori	r30, 0x04	; 4
 910:	3e 2e       	mov	r3, r30
 912:	2a c0       	rjmp	.+84     	; 0x968 <vfprintf+0xe6>
 914:	f3 2d       	mov	r31, r3
 916:	f8 60       	ori	r31, 0x08	; 8
 918:	1d c0       	rjmp	.+58     	; 0x954 <vfprintf+0xd2>
 91a:	37 fc       	sbrc	r3, 7
 91c:	2d c0       	rjmp	.+90     	; 0x978 <vfprintf+0xf6>
 91e:	20 ed       	ldi	r18, 0xD0	; 208
 920:	28 0f       	add	r18, r24
 922:	2a 30       	cpi	r18, 0x0A	; 10
 924:	40 f0       	brcs	.+16     	; 0x936 <vfprintf+0xb4>
 926:	8e 32       	cpi	r24, 0x2E	; 46
 928:	b9 f4       	brne	.+46     	; 0x958 <vfprintf+0xd6>
 92a:	36 fc       	sbrc	r3, 6
 92c:	81 c1       	rjmp	.+770    	; 0xc30 <vfprintf+0x3ae>
 92e:	23 2d       	mov	r18, r3
 930:	20 64       	ori	r18, 0x40	; 64
 932:	32 2e       	mov	r3, r18
 934:	19 c0       	rjmp	.+50     	; 0x968 <vfprintf+0xe6>
 936:	36 fe       	sbrs	r3, 6
 938:	06 c0       	rjmp	.+12     	; 0x946 <vfprintf+0xc4>
 93a:	8a e0       	ldi	r24, 0x0A	; 10
 93c:	98 9e       	mul	r9, r24
 93e:	20 0d       	add	r18, r0
 940:	11 24       	eor	r1, r1
 942:	92 2e       	mov	r9, r18
 944:	11 c0       	rjmp	.+34     	; 0x968 <vfprintf+0xe6>
 946:	ea e0       	ldi	r30, 0x0A	; 10
 948:	2e 9e       	mul	r2, r30
 94a:	20 0d       	add	r18, r0
 94c:	11 24       	eor	r1, r1
 94e:	22 2e       	mov	r2, r18
 950:	f3 2d       	mov	r31, r3
 952:	f0 62       	ori	r31, 0x20	; 32
 954:	3f 2e       	mov	r3, r31
 956:	08 c0       	rjmp	.+16     	; 0x968 <vfprintf+0xe6>
 958:	8c 36       	cpi	r24, 0x6C	; 108
 95a:	21 f4       	brne	.+8      	; 0x964 <vfprintf+0xe2>
 95c:	83 2d       	mov	r24, r3
 95e:	80 68       	ori	r24, 0x80	; 128
 960:	38 2e       	mov	r3, r24
 962:	02 c0       	rjmp	.+4      	; 0x968 <vfprintf+0xe6>
 964:	88 36       	cpi	r24, 0x68	; 104
 966:	41 f4       	brne	.+16     	; 0x978 <vfprintf+0xf6>
 968:	f7 01       	movw	r30, r14
 96a:	93 fd       	sbrc	r25, 3
 96c:	85 91       	lpm	r24, Z+
 96e:	93 ff       	sbrs	r25, 3
 970:	81 91       	ld	r24, Z+
 972:	7f 01       	movw	r14, r30
 974:	81 11       	cpse	r24, r1
 976:	b3 cf       	rjmp	.-154    	; 0x8de <vfprintf+0x5c>
 978:	98 2f       	mov	r25, r24
 97a:	9f 7d       	andi	r25, 0xDF	; 223
 97c:	95 54       	subi	r25, 0x45	; 69
 97e:	93 30       	cpi	r25, 0x03	; 3
 980:	28 f4       	brcc	.+10     	; 0x98c <vfprintf+0x10a>
 982:	0c 5f       	subi	r16, 0xFC	; 252
 984:	1f 4f       	sbci	r17, 0xFF	; 255
 986:	9f e3       	ldi	r25, 0x3F	; 63
 988:	99 83       	std	Y+1, r25	; 0x01
 98a:	0d c0       	rjmp	.+26     	; 0x9a6 <vfprintf+0x124>
 98c:	83 36       	cpi	r24, 0x63	; 99
 98e:	31 f0       	breq	.+12     	; 0x99c <vfprintf+0x11a>
 990:	83 37       	cpi	r24, 0x73	; 115
 992:	71 f0       	breq	.+28     	; 0x9b0 <vfprintf+0x12e>
 994:	83 35       	cpi	r24, 0x53	; 83
 996:	09 f0       	breq	.+2      	; 0x99a <vfprintf+0x118>
 998:	59 c0       	rjmp	.+178    	; 0xa4c <vfprintf+0x1ca>
 99a:	21 c0       	rjmp	.+66     	; 0x9de <vfprintf+0x15c>
 99c:	f8 01       	movw	r30, r16
 99e:	80 81       	ld	r24, Z
 9a0:	89 83       	std	Y+1, r24	; 0x01
 9a2:	0e 5f       	subi	r16, 0xFE	; 254
 9a4:	1f 4f       	sbci	r17, 0xFF	; 255
 9a6:	88 24       	eor	r8, r8
 9a8:	83 94       	inc	r8
 9aa:	91 2c       	mov	r9, r1
 9ac:	53 01       	movw	r10, r6
 9ae:	13 c0       	rjmp	.+38     	; 0x9d6 <vfprintf+0x154>
 9b0:	28 01       	movw	r4, r16
 9b2:	f2 e0       	ldi	r31, 0x02	; 2
 9b4:	4f 0e       	add	r4, r31
 9b6:	51 1c       	adc	r5, r1
 9b8:	f8 01       	movw	r30, r16
 9ba:	a0 80       	ld	r10, Z
 9bc:	b1 80       	ldd	r11, Z+1	; 0x01
 9be:	36 fe       	sbrs	r3, 6
 9c0:	03 c0       	rjmp	.+6      	; 0x9c8 <vfprintf+0x146>
 9c2:	69 2d       	mov	r22, r9
 9c4:	70 e0       	ldi	r23, 0x00	; 0
 9c6:	02 c0       	rjmp	.+4      	; 0x9cc <vfprintf+0x14a>
 9c8:	6f ef       	ldi	r22, 0xFF	; 255
 9ca:	7f ef       	ldi	r23, 0xFF	; 255
 9cc:	c5 01       	movw	r24, r10
 9ce:	0e 94 2d 06 	call	0xc5a	; 0xc5a <strnlen>
 9d2:	4c 01       	movw	r8, r24
 9d4:	82 01       	movw	r16, r4
 9d6:	f3 2d       	mov	r31, r3
 9d8:	ff 77       	andi	r31, 0x7F	; 127
 9da:	3f 2e       	mov	r3, r31
 9dc:	16 c0       	rjmp	.+44     	; 0xa0a <vfprintf+0x188>
 9de:	28 01       	movw	r4, r16
 9e0:	22 e0       	ldi	r18, 0x02	; 2
 9e2:	42 0e       	add	r4, r18
 9e4:	51 1c       	adc	r5, r1
 9e6:	f8 01       	movw	r30, r16
 9e8:	a0 80       	ld	r10, Z
 9ea:	b1 80       	ldd	r11, Z+1	; 0x01
 9ec:	36 fe       	sbrs	r3, 6
 9ee:	03 c0       	rjmp	.+6      	; 0x9f6 <vfprintf+0x174>
 9f0:	69 2d       	mov	r22, r9
 9f2:	70 e0       	ldi	r23, 0x00	; 0
 9f4:	02 c0       	rjmp	.+4      	; 0x9fa <vfprintf+0x178>
 9f6:	6f ef       	ldi	r22, 0xFF	; 255
 9f8:	7f ef       	ldi	r23, 0xFF	; 255
 9fa:	c5 01       	movw	r24, r10
 9fc:	0e 94 22 06 	call	0xc44	; 0xc44 <strnlen_P>
 a00:	4c 01       	movw	r8, r24
 a02:	f3 2d       	mov	r31, r3
 a04:	f0 68       	ori	r31, 0x80	; 128
 a06:	3f 2e       	mov	r3, r31
 a08:	82 01       	movw	r16, r4
 a0a:	33 fc       	sbrc	r3, 3
 a0c:	1b c0       	rjmp	.+54     	; 0xa44 <vfprintf+0x1c2>
 a0e:	82 2d       	mov	r24, r2
 a10:	90 e0       	ldi	r25, 0x00	; 0
 a12:	88 16       	cp	r8, r24
 a14:	99 06       	cpc	r9, r25
 a16:	b0 f4       	brcc	.+44     	; 0xa44 <vfprintf+0x1c2>
 a18:	b6 01       	movw	r22, r12
 a1a:	80 e2       	ldi	r24, 0x20	; 32
 a1c:	90 e0       	ldi	r25, 0x00	; 0
 a1e:	0e 94 38 06 	call	0xc70	; 0xc70 <fputc>
 a22:	2a 94       	dec	r2
 a24:	f4 cf       	rjmp	.-24     	; 0xa0e <vfprintf+0x18c>
 a26:	f5 01       	movw	r30, r10
 a28:	37 fc       	sbrc	r3, 7
 a2a:	85 91       	lpm	r24, Z+
 a2c:	37 fe       	sbrs	r3, 7
 a2e:	81 91       	ld	r24, Z+
 a30:	5f 01       	movw	r10, r30
 a32:	b6 01       	movw	r22, r12
 a34:	90 e0       	ldi	r25, 0x00	; 0
 a36:	0e 94 38 06 	call	0xc70	; 0xc70 <fputc>
 a3a:	21 10       	cpse	r2, r1
 a3c:	2a 94       	dec	r2
 a3e:	21 e0       	ldi	r18, 0x01	; 1
 a40:	82 1a       	sub	r8, r18
 a42:	91 08       	sbc	r9, r1
 a44:	81 14       	cp	r8, r1
 a46:	91 04       	cpc	r9, r1
 a48:	71 f7       	brne	.-36     	; 0xa26 <vfprintf+0x1a4>
 a4a:	e8 c0       	rjmp	.+464    	; 0xc1c <vfprintf+0x39a>
 a4c:	84 36       	cpi	r24, 0x64	; 100
 a4e:	11 f0       	breq	.+4      	; 0xa54 <vfprintf+0x1d2>
 a50:	89 36       	cpi	r24, 0x69	; 105
 a52:	41 f5       	brne	.+80     	; 0xaa4 <vfprintf+0x222>
 a54:	f8 01       	movw	r30, r16
 a56:	37 fe       	sbrs	r3, 7
 a58:	07 c0       	rjmp	.+14     	; 0xa68 <vfprintf+0x1e6>
 a5a:	60 81       	ld	r22, Z
 a5c:	71 81       	ldd	r23, Z+1	; 0x01
 a5e:	82 81       	ldd	r24, Z+2	; 0x02
 a60:	93 81       	ldd	r25, Z+3	; 0x03
 a62:	0c 5f       	subi	r16, 0xFC	; 252
 a64:	1f 4f       	sbci	r17, 0xFF	; 255
 a66:	08 c0       	rjmp	.+16     	; 0xa78 <vfprintf+0x1f6>
 a68:	60 81       	ld	r22, Z
 a6a:	71 81       	ldd	r23, Z+1	; 0x01
 a6c:	07 2e       	mov	r0, r23
 a6e:	00 0c       	add	r0, r0
 a70:	88 0b       	sbc	r24, r24
 a72:	99 0b       	sbc	r25, r25
 a74:	0e 5f       	subi	r16, 0xFE	; 254
 a76:	1f 4f       	sbci	r17, 0xFF	; 255
 a78:	f3 2d       	mov	r31, r3
 a7a:	ff 76       	andi	r31, 0x6F	; 111
 a7c:	3f 2e       	mov	r3, r31
 a7e:	97 ff       	sbrs	r25, 7
 a80:	09 c0       	rjmp	.+18     	; 0xa94 <vfprintf+0x212>
 a82:	90 95       	com	r25
 a84:	80 95       	com	r24
 a86:	70 95       	com	r23
 a88:	61 95       	neg	r22
 a8a:	7f 4f       	sbci	r23, 0xFF	; 255
 a8c:	8f 4f       	sbci	r24, 0xFF	; 255
 a8e:	9f 4f       	sbci	r25, 0xFF	; 255
 a90:	f0 68       	ori	r31, 0x80	; 128
 a92:	3f 2e       	mov	r3, r31
 a94:	2a e0       	ldi	r18, 0x0A	; 10
 a96:	30 e0       	ldi	r19, 0x00	; 0
 a98:	a3 01       	movw	r20, r6
 a9a:	0e 94 74 06 	call	0xce8	; 0xce8 <__ultoa_invert>
 a9e:	88 2e       	mov	r8, r24
 aa0:	86 18       	sub	r8, r6
 aa2:	45 c0       	rjmp	.+138    	; 0xb2e <vfprintf+0x2ac>
 aa4:	85 37       	cpi	r24, 0x75	; 117
 aa6:	31 f4       	brne	.+12     	; 0xab4 <vfprintf+0x232>
 aa8:	23 2d       	mov	r18, r3
 aaa:	2f 7e       	andi	r18, 0xEF	; 239
 aac:	b2 2e       	mov	r11, r18
 aae:	2a e0       	ldi	r18, 0x0A	; 10
 ab0:	30 e0       	ldi	r19, 0x00	; 0
 ab2:	25 c0       	rjmp	.+74     	; 0xafe <vfprintf+0x27c>
 ab4:	93 2d       	mov	r25, r3
 ab6:	99 7f       	andi	r25, 0xF9	; 249
 ab8:	b9 2e       	mov	r11, r25
 aba:	8f 36       	cpi	r24, 0x6F	; 111
 abc:	c1 f0       	breq	.+48     	; 0xaee <vfprintf+0x26c>
 abe:	18 f4       	brcc	.+6      	; 0xac6 <vfprintf+0x244>
 ac0:	88 35       	cpi	r24, 0x58	; 88
 ac2:	79 f0       	breq	.+30     	; 0xae2 <vfprintf+0x260>
 ac4:	b5 c0       	rjmp	.+362    	; 0xc30 <vfprintf+0x3ae>
 ac6:	80 37       	cpi	r24, 0x70	; 112
 ac8:	19 f0       	breq	.+6      	; 0xad0 <vfprintf+0x24e>
 aca:	88 37       	cpi	r24, 0x78	; 120
 acc:	21 f0       	breq	.+8      	; 0xad6 <vfprintf+0x254>
 ace:	b0 c0       	rjmp	.+352    	; 0xc30 <vfprintf+0x3ae>
 ad0:	e9 2f       	mov	r30, r25
 ad2:	e0 61       	ori	r30, 0x10	; 16
 ad4:	be 2e       	mov	r11, r30
 ad6:	b4 fe       	sbrs	r11, 4
 ad8:	0d c0       	rjmp	.+26     	; 0xaf4 <vfprintf+0x272>
 ada:	fb 2d       	mov	r31, r11
 adc:	f4 60       	ori	r31, 0x04	; 4
 ade:	bf 2e       	mov	r11, r31
 ae0:	09 c0       	rjmp	.+18     	; 0xaf4 <vfprintf+0x272>
 ae2:	34 fe       	sbrs	r3, 4
 ae4:	0a c0       	rjmp	.+20     	; 0xafa <vfprintf+0x278>
 ae6:	29 2f       	mov	r18, r25
 ae8:	26 60       	ori	r18, 0x06	; 6
 aea:	b2 2e       	mov	r11, r18
 aec:	06 c0       	rjmp	.+12     	; 0xafa <vfprintf+0x278>
 aee:	28 e0       	ldi	r18, 0x08	; 8
 af0:	30 e0       	ldi	r19, 0x00	; 0
 af2:	05 c0       	rjmp	.+10     	; 0xafe <vfprintf+0x27c>
 af4:	20 e1       	ldi	r18, 0x10	; 16
 af6:	30 e0       	ldi	r19, 0x00	; 0
 af8:	02 c0       	rjmp	.+4      	; 0xafe <vfprintf+0x27c>
 afa:	20 e1       	ldi	r18, 0x10	; 16
 afc:	32 e0       	ldi	r19, 0x02	; 2
 afe:	f8 01       	movw	r30, r16
 b00:	b7 fe       	sbrs	r11, 7
 b02:	07 c0       	rjmp	.+14     	; 0xb12 <vfprintf+0x290>
 b04:	60 81       	ld	r22, Z
 b06:	71 81       	ldd	r23, Z+1	; 0x01
 b08:	82 81       	ldd	r24, Z+2	; 0x02
 b0a:	93 81       	ldd	r25, Z+3	; 0x03
 b0c:	0c 5f       	subi	r16, 0xFC	; 252
 b0e:	1f 4f       	sbci	r17, 0xFF	; 255
 b10:	06 c0       	rjmp	.+12     	; 0xb1e <vfprintf+0x29c>
 b12:	60 81       	ld	r22, Z
 b14:	71 81       	ldd	r23, Z+1	; 0x01
 b16:	80 e0       	ldi	r24, 0x00	; 0
 b18:	90 e0       	ldi	r25, 0x00	; 0
 b1a:	0e 5f       	subi	r16, 0xFE	; 254
 b1c:	1f 4f       	sbci	r17, 0xFF	; 255
 b1e:	a3 01       	movw	r20, r6
 b20:	0e 94 74 06 	call	0xce8	; 0xce8 <__ultoa_invert>
 b24:	88 2e       	mov	r8, r24
 b26:	86 18       	sub	r8, r6
 b28:	fb 2d       	mov	r31, r11
 b2a:	ff 77       	andi	r31, 0x7F	; 127
 b2c:	3f 2e       	mov	r3, r31
 b2e:	36 fe       	sbrs	r3, 6
 b30:	0d c0       	rjmp	.+26     	; 0xb4c <vfprintf+0x2ca>
 b32:	23 2d       	mov	r18, r3
 b34:	2e 7f       	andi	r18, 0xFE	; 254
 b36:	a2 2e       	mov	r10, r18
 b38:	89 14       	cp	r8, r9
 b3a:	58 f4       	brcc	.+22     	; 0xb52 <vfprintf+0x2d0>
 b3c:	34 fe       	sbrs	r3, 4
 b3e:	0b c0       	rjmp	.+22     	; 0xb56 <vfprintf+0x2d4>
 b40:	32 fc       	sbrc	r3, 2
 b42:	09 c0       	rjmp	.+18     	; 0xb56 <vfprintf+0x2d4>
 b44:	83 2d       	mov	r24, r3
 b46:	8e 7e       	andi	r24, 0xEE	; 238
 b48:	a8 2e       	mov	r10, r24
 b4a:	05 c0       	rjmp	.+10     	; 0xb56 <vfprintf+0x2d4>
 b4c:	b8 2c       	mov	r11, r8
 b4e:	a3 2c       	mov	r10, r3
 b50:	03 c0       	rjmp	.+6      	; 0xb58 <vfprintf+0x2d6>
 b52:	b8 2c       	mov	r11, r8
 b54:	01 c0       	rjmp	.+2      	; 0xb58 <vfprintf+0x2d6>
 b56:	b9 2c       	mov	r11, r9
 b58:	a4 fe       	sbrs	r10, 4
 b5a:	0f c0       	rjmp	.+30     	; 0xb7a <vfprintf+0x2f8>
 b5c:	fe 01       	movw	r30, r28
 b5e:	e8 0d       	add	r30, r8
 b60:	f1 1d       	adc	r31, r1
 b62:	80 81       	ld	r24, Z
 b64:	80 33       	cpi	r24, 0x30	; 48
 b66:	21 f4       	brne	.+8      	; 0xb70 <vfprintf+0x2ee>
 b68:	9a 2d       	mov	r25, r10
 b6a:	99 7e       	andi	r25, 0xE9	; 233
 b6c:	a9 2e       	mov	r10, r25
 b6e:	09 c0       	rjmp	.+18     	; 0xb82 <vfprintf+0x300>
 b70:	a2 fe       	sbrs	r10, 2
 b72:	06 c0       	rjmp	.+12     	; 0xb80 <vfprintf+0x2fe>
 b74:	b3 94       	inc	r11
 b76:	b3 94       	inc	r11
 b78:	04 c0       	rjmp	.+8      	; 0xb82 <vfprintf+0x300>
 b7a:	8a 2d       	mov	r24, r10
 b7c:	86 78       	andi	r24, 0x86	; 134
 b7e:	09 f0       	breq	.+2      	; 0xb82 <vfprintf+0x300>
 b80:	b3 94       	inc	r11
 b82:	a3 fc       	sbrc	r10, 3
 b84:	11 c0       	rjmp	.+34     	; 0xba8 <vfprintf+0x326>
 b86:	a0 fe       	sbrs	r10, 0
 b88:	06 c0       	rjmp	.+12     	; 0xb96 <vfprintf+0x314>
 b8a:	b2 14       	cp	r11, r2
 b8c:	88 f4       	brcc	.+34     	; 0xbb0 <vfprintf+0x32e>
 b8e:	28 0c       	add	r2, r8
 b90:	92 2c       	mov	r9, r2
 b92:	9b 18       	sub	r9, r11
 b94:	0e c0       	rjmp	.+28     	; 0xbb2 <vfprintf+0x330>
 b96:	b2 14       	cp	r11, r2
 b98:	60 f4       	brcc	.+24     	; 0xbb2 <vfprintf+0x330>
 b9a:	b6 01       	movw	r22, r12
 b9c:	80 e2       	ldi	r24, 0x20	; 32
 b9e:	90 e0       	ldi	r25, 0x00	; 0
 ba0:	0e 94 38 06 	call	0xc70	; 0xc70 <fputc>
 ba4:	b3 94       	inc	r11
 ba6:	f7 cf       	rjmp	.-18     	; 0xb96 <vfprintf+0x314>
 ba8:	b2 14       	cp	r11, r2
 baa:	18 f4       	brcc	.+6      	; 0xbb2 <vfprintf+0x330>
 bac:	2b 18       	sub	r2, r11
 bae:	02 c0       	rjmp	.+4      	; 0xbb4 <vfprintf+0x332>
 bb0:	98 2c       	mov	r9, r8
 bb2:	21 2c       	mov	r2, r1
 bb4:	a4 fe       	sbrs	r10, 4
 bb6:	10 c0       	rjmp	.+32     	; 0xbd8 <vfprintf+0x356>
 bb8:	b6 01       	movw	r22, r12
 bba:	80 e3       	ldi	r24, 0x30	; 48
 bbc:	90 e0       	ldi	r25, 0x00	; 0
 bbe:	0e 94 38 06 	call	0xc70	; 0xc70 <fputc>
 bc2:	a2 fe       	sbrs	r10, 2
 bc4:	17 c0       	rjmp	.+46     	; 0xbf4 <vfprintf+0x372>
 bc6:	a1 fc       	sbrc	r10, 1
 bc8:	03 c0       	rjmp	.+6      	; 0xbd0 <vfprintf+0x34e>
 bca:	88 e7       	ldi	r24, 0x78	; 120
 bcc:	90 e0       	ldi	r25, 0x00	; 0
 bce:	02 c0       	rjmp	.+4      	; 0xbd4 <vfprintf+0x352>
 bd0:	88 e5       	ldi	r24, 0x58	; 88
 bd2:	90 e0       	ldi	r25, 0x00	; 0
 bd4:	b6 01       	movw	r22, r12
 bd6:	0c c0       	rjmp	.+24     	; 0xbf0 <vfprintf+0x36e>
 bd8:	8a 2d       	mov	r24, r10
 bda:	86 78       	andi	r24, 0x86	; 134
 bdc:	59 f0       	breq	.+22     	; 0xbf4 <vfprintf+0x372>
 bde:	a1 fe       	sbrs	r10, 1
 be0:	02 c0       	rjmp	.+4      	; 0xbe6 <vfprintf+0x364>
 be2:	8b e2       	ldi	r24, 0x2B	; 43
 be4:	01 c0       	rjmp	.+2      	; 0xbe8 <vfprintf+0x366>
 be6:	80 e2       	ldi	r24, 0x20	; 32
 be8:	a7 fc       	sbrc	r10, 7
 bea:	8d e2       	ldi	r24, 0x2D	; 45
 bec:	b6 01       	movw	r22, r12
 bee:	90 e0       	ldi	r25, 0x00	; 0
 bf0:	0e 94 38 06 	call	0xc70	; 0xc70 <fputc>
 bf4:	89 14       	cp	r8, r9
 bf6:	38 f4       	brcc	.+14     	; 0xc06 <vfprintf+0x384>
 bf8:	b6 01       	movw	r22, r12
 bfa:	80 e3       	ldi	r24, 0x30	; 48
 bfc:	90 e0       	ldi	r25, 0x00	; 0
 bfe:	0e 94 38 06 	call	0xc70	; 0xc70 <fputc>
 c02:	9a 94       	dec	r9
 c04:	f7 cf       	rjmp	.-18     	; 0xbf4 <vfprintf+0x372>
 c06:	8a 94       	dec	r8
 c08:	f3 01       	movw	r30, r6
 c0a:	e8 0d       	add	r30, r8
 c0c:	f1 1d       	adc	r31, r1
 c0e:	80 81       	ld	r24, Z
 c10:	b6 01       	movw	r22, r12
 c12:	90 e0       	ldi	r25, 0x00	; 0
 c14:	0e 94 38 06 	call	0xc70	; 0xc70 <fputc>
 c18:	81 10       	cpse	r8, r1
 c1a:	f5 cf       	rjmp	.-22     	; 0xc06 <vfprintf+0x384>
 c1c:	22 20       	and	r2, r2
 c1e:	09 f4       	brne	.+2      	; 0xc22 <vfprintf+0x3a0>
 c20:	42 ce       	rjmp	.-892    	; 0x8a6 <vfprintf+0x24>
 c22:	b6 01       	movw	r22, r12
 c24:	80 e2       	ldi	r24, 0x20	; 32
 c26:	90 e0       	ldi	r25, 0x00	; 0
 c28:	0e 94 38 06 	call	0xc70	; 0xc70 <fputc>
 c2c:	2a 94       	dec	r2
 c2e:	f6 cf       	rjmp	.-20     	; 0xc1c <vfprintf+0x39a>
 c30:	f6 01       	movw	r30, r12
 c32:	86 81       	ldd	r24, Z+6	; 0x06
 c34:	97 81       	ldd	r25, Z+7	; 0x07
 c36:	02 c0       	rjmp	.+4      	; 0xc3c <vfprintf+0x3ba>
 c38:	8f ef       	ldi	r24, 0xFF	; 255
 c3a:	9f ef       	ldi	r25, 0xFF	; 255
 c3c:	2b 96       	adiw	r28, 0x0b	; 11
 c3e:	e2 e1       	ldi	r30, 0x12	; 18
 c40:	0c 94 ee 06 	jmp	0xddc	; 0xddc <__epilogue_restores__>

00000c44 <strnlen_P>:
 c44:	fc 01       	movw	r30, r24
 c46:	05 90       	lpm	r0, Z+
 c48:	61 50       	subi	r22, 0x01	; 1
 c4a:	70 40       	sbci	r23, 0x00	; 0
 c4c:	01 10       	cpse	r0, r1
 c4e:	d8 f7       	brcc	.-10     	; 0xc46 <strnlen_P+0x2>
 c50:	80 95       	com	r24
 c52:	90 95       	com	r25
 c54:	8e 0f       	add	r24, r30
 c56:	9f 1f       	adc	r25, r31
 c58:	08 95       	ret

00000c5a <strnlen>:
 c5a:	fc 01       	movw	r30, r24
 c5c:	61 50       	subi	r22, 0x01	; 1
 c5e:	70 40       	sbci	r23, 0x00	; 0
 c60:	01 90       	ld	r0, Z+
 c62:	01 10       	cpse	r0, r1
 c64:	d8 f7       	brcc	.-10     	; 0xc5c <strnlen+0x2>
 c66:	80 95       	com	r24
 c68:	90 95       	com	r25
 c6a:	8e 0f       	add	r24, r30
 c6c:	9f 1f       	adc	r25, r31
 c6e:	08 95       	ret

00000c70 <fputc>:
 c70:	0f 93       	push	r16
 c72:	1f 93       	push	r17
 c74:	cf 93       	push	r28
 c76:	df 93       	push	r29
 c78:	fb 01       	movw	r30, r22
 c7a:	23 81       	ldd	r18, Z+3	; 0x03
 c7c:	21 fd       	sbrc	r18, 1
 c7e:	03 c0       	rjmp	.+6      	; 0xc86 <fputc+0x16>
 c80:	8f ef       	ldi	r24, 0xFF	; 255
 c82:	9f ef       	ldi	r25, 0xFF	; 255
 c84:	2c c0       	rjmp	.+88     	; 0xcde <fputc+0x6e>
 c86:	22 ff       	sbrs	r18, 2
 c88:	16 c0       	rjmp	.+44     	; 0xcb6 <fputc+0x46>
 c8a:	46 81       	ldd	r20, Z+6	; 0x06
 c8c:	57 81       	ldd	r21, Z+7	; 0x07
 c8e:	24 81       	ldd	r18, Z+4	; 0x04
 c90:	35 81       	ldd	r19, Z+5	; 0x05
 c92:	42 17       	cp	r20, r18
 c94:	53 07       	cpc	r21, r19
 c96:	44 f4       	brge	.+16     	; 0xca8 <fputc+0x38>
 c98:	a0 81       	ld	r26, Z
 c9a:	b1 81       	ldd	r27, Z+1	; 0x01
 c9c:	9d 01       	movw	r18, r26
 c9e:	2f 5f       	subi	r18, 0xFF	; 255
 ca0:	3f 4f       	sbci	r19, 0xFF	; 255
 ca2:	31 83       	std	Z+1, r19	; 0x01
 ca4:	20 83       	st	Z, r18
 ca6:	8c 93       	st	X, r24
 ca8:	26 81       	ldd	r18, Z+6	; 0x06
 caa:	37 81       	ldd	r19, Z+7	; 0x07
 cac:	2f 5f       	subi	r18, 0xFF	; 255
 cae:	3f 4f       	sbci	r19, 0xFF	; 255
 cb0:	37 83       	std	Z+7, r19	; 0x07
 cb2:	26 83       	std	Z+6, r18	; 0x06
 cb4:	14 c0       	rjmp	.+40     	; 0xcde <fputc+0x6e>
 cb6:	8b 01       	movw	r16, r22
 cb8:	ec 01       	movw	r28, r24
 cba:	fb 01       	movw	r30, r22
 cbc:	00 84       	ldd	r0, Z+8	; 0x08
 cbe:	f1 85       	ldd	r31, Z+9	; 0x09
 cc0:	e0 2d       	mov	r30, r0
 cc2:	09 95       	icall
 cc4:	89 2b       	or	r24, r25
 cc6:	e1 f6       	brne	.-72     	; 0xc80 <fputc+0x10>
 cc8:	d8 01       	movw	r26, r16
 cca:	16 96       	adiw	r26, 0x06	; 6
 ccc:	8d 91       	ld	r24, X+
 cce:	9c 91       	ld	r25, X
 cd0:	17 97       	sbiw	r26, 0x07	; 7
 cd2:	01 96       	adiw	r24, 0x01	; 1
 cd4:	17 96       	adiw	r26, 0x07	; 7
 cd6:	9c 93       	st	X, r25
 cd8:	8e 93       	st	-X, r24
 cda:	16 97       	sbiw	r26, 0x06	; 6
 cdc:	ce 01       	movw	r24, r28
 cde:	df 91       	pop	r29
 ce0:	cf 91       	pop	r28
 ce2:	1f 91       	pop	r17
 ce4:	0f 91       	pop	r16
 ce6:	08 95       	ret

00000ce8 <__ultoa_invert>:
 ce8:	fa 01       	movw	r30, r20
 cea:	aa 27       	eor	r26, r26
 cec:	28 30       	cpi	r18, 0x08	; 8
 cee:	51 f1       	breq	.+84     	; 0xd44 <__ultoa_invert+0x5c>
 cf0:	20 31       	cpi	r18, 0x10	; 16
 cf2:	81 f1       	breq	.+96     	; 0xd54 <__ultoa_invert+0x6c>
 cf4:	e8 94       	clt
 cf6:	6f 93       	push	r22
 cf8:	6e 7f       	andi	r22, 0xFE	; 254
 cfa:	6e 5f       	subi	r22, 0xFE	; 254
 cfc:	7f 4f       	sbci	r23, 0xFF	; 255
 cfe:	8f 4f       	sbci	r24, 0xFF	; 255
 d00:	9f 4f       	sbci	r25, 0xFF	; 255
 d02:	af 4f       	sbci	r26, 0xFF	; 255
 d04:	b1 e0       	ldi	r27, 0x01	; 1
 d06:	3e d0       	rcall	.+124    	; 0xd84 <__ultoa_invert+0x9c>
 d08:	b4 e0       	ldi	r27, 0x04	; 4
 d0a:	3c d0       	rcall	.+120    	; 0xd84 <__ultoa_invert+0x9c>
 d0c:	67 0f       	add	r22, r23
 d0e:	78 1f       	adc	r23, r24
 d10:	89 1f       	adc	r24, r25
 d12:	9a 1f       	adc	r25, r26
 d14:	a1 1d       	adc	r26, r1
 d16:	68 0f       	add	r22, r24
 d18:	79 1f       	adc	r23, r25
 d1a:	8a 1f       	adc	r24, r26
 d1c:	91 1d       	adc	r25, r1
 d1e:	a1 1d       	adc	r26, r1
 d20:	6a 0f       	add	r22, r26
 d22:	71 1d       	adc	r23, r1
 d24:	81 1d       	adc	r24, r1
 d26:	91 1d       	adc	r25, r1
 d28:	a1 1d       	adc	r26, r1
 d2a:	20 d0       	rcall	.+64     	; 0xd6c <__ultoa_invert+0x84>
 d2c:	09 f4       	brne	.+2      	; 0xd30 <__ultoa_invert+0x48>
 d2e:	68 94       	set
 d30:	3f 91       	pop	r19
 d32:	2a e0       	ldi	r18, 0x0A	; 10
 d34:	26 9f       	mul	r18, r22
 d36:	11 24       	eor	r1, r1
 d38:	30 19       	sub	r19, r0
 d3a:	30 5d       	subi	r19, 0xD0	; 208
 d3c:	31 93       	st	Z+, r19
 d3e:	de f6       	brtc	.-74     	; 0xcf6 <__ultoa_invert+0xe>
 d40:	cf 01       	movw	r24, r30
 d42:	08 95       	ret
 d44:	46 2f       	mov	r20, r22
 d46:	47 70       	andi	r20, 0x07	; 7
 d48:	40 5d       	subi	r20, 0xD0	; 208
 d4a:	41 93       	st	Z+, r20
 d4c:	b3 e0       	ldi	r27, 0x03	; 3
 d4e:	0f d0       	rcall	.+30     	; 0xd6e <__ultoa_invert+0x86>
 d50:	c9 f7       	brne	.-14     	; 0xd44 <__ultoa_invert+0x5c>
 d52:	f6 cf       	rjmp	.-20     	; 0xd40 <__ultoa_invert+0x58>
 d54:	46 2f       	mov	r20, r22
 d56:	4f 70       	andi	r20, 0x0F	; 15
 d58:	40 5d       	subi	r20, 0xD0	; 208
 d5a:	4a 33       	cpi	r20, 0x3A	; 58
 d5c:	18 f0       	brcs	.+6      	; 0xd64 <__ultoa_invert+0x7c>
 d5e:	49 5d       	subi	r20, 0xD9	; 217
 d60:	31 fd       	sbrc	r19, 1
 d62:	40 52       	subi	r20, 0x20	; 32
 d64:	41 93       	st	Z+, r20
 d66:	02 d0       	rcall	.+4      	; 0xd6c <__ultoa_invert+0x84>
 d68:	a9 f7       	brne	.-22     	; 0xd54 <__ultoa_invert+0x6c>
 d6a:	ea cf       	rjmp	.-44     	; 0xd40 <__ultoa_invert+0x58>
 d6c:	b4 e0       	ldi	r27, 0x04	; 4
 d6e:	a6 95       	lsr	r26
 d70:	97 95       	ror	r25
 d72:	87 95       	ror	r24
 d74:	77 95       	ror	r23
 d76:	67 95       	ror	r22
 d78:	ba 95       	dec	r27
 d7a:	c9 f7       	brne	.-14     	; 0xd6e <__ultoa_invert+0x86>
 d7c:	00 97       	sbiw	r24, 0x00	; 0
 d7e:	61 05       	cpc	r22, r1
 d80:	71 05       	cpc	r23, r1
 d82:	08 95       	ret
 d84:	9b 01       	movw	r18, r22
 d86:	ac 01       	movw	r20, r24
 d88:	0a 2e       	mov	r0, r26
 d8a:	06 94       	lsr	r0
 d8c:	57 95       	ror	r21
 d8e:	47 95       	ror	r20
 d90:	37 95       	ror	r19
 d92:	27 95       	ror	r18
 d94:	ba 95       	dec	r27
 d96:	c9 f7       	brne	.-14     	; 0xd8a <__ultoa_invert+0xa2>
 d98:	62 0f       	add	r22, r18
 d9a:	73 1f       	adc	r23, r19
 d9c:	84 1f       	adc	r24, r20
 d9e:	95 1f       	adc	r25, r21
 da0:	a0 1d       	adc	r26, r0
 da2:	08 95       	ret

00000da4 <__prologue_saves__>:
 da4:	2f 92       	push	r2
 da6:	3f 92       	push	r3
 da8:	4f 92       	push	r4
 daa:	5f 92       	push	r5
 dac:	6f 92       	push	r6
 dae:	7f 92       	push	r7
 db0:	8f 92       	push	r8
 db2:	9f 92       	push	r9
 db4:	af 92       	push	r10
 db6:	bf 92       	push	r11
 db8:	cf 92       	push	r12
 dba:	df 92       	push	r13
 dbc:	ef 92       	push	r14
 dbe:	ff 92       	push	r15
 dc0:	0f 93       	push	r16
 dc2:	1f 93       	push	r17
 dc4:	cf 93       	push	r28
 dc6:	df 93       	push	r29
 dc8:	cd b7       	in	r28, 0x3d	; 61
 dca:	de b7       	in	r29, 0x3e	; 62
 dcc:	ca 1b       	sub	r28, r26
 dce:	db 0b       	sbc	r29, r27
 dd0:	0f b6       	in	r0, 0x3f	; 63
 dd2:	f8 94       	cli
 dd4:	de bf       	out	0x3e, r29	; 62
 dd6:	0f be       	out	0x3f, r0	; 63
 dd8:	cd bf       	out	0x3d, r28	; 61
 dda:	09 94       	ijmp

00000ddc <__epilogue_restores__>:
 ddc:	2a 88       	ldd	r2, Y+18	; 0x12
 dde:	39 88       	ldd	r3, Y+17	; 0x11
 de0:	48 88       	ldd	r4, Y+16	; 0x10
 de2:	5f 84       	ldd	r5, Y+15	; 0x0f
 de4:	6e 84       	ldd	r6, Y+14	; 0x0e
 de6:	7d 84       	ldd	r7, Y+13	; 0x0d
 de8:	8c 84       	ldd	r8, Y+12	; 0x0c
 dea:	9b 84       	ldd	r9, Y+11	; 0x0b
 dec:	aa 84       	ldd	r10, Y+10	; 0x0a
 dee:	b9 84       	ldd	r11, Y+9	; 0x09
 df0:	c8 84       	ldd	r12, Y+8	; 0x08
 df2:	df 80       	ldd	r13, Y+7	; 0x07
 df4:	ee 80       	ldd	r14, Y+6	; 0x06
 df6:	fd 80       	ldd	r15, Y+5	; 0x05
 df8:	0c 81       	ldd	r16, Y+4	; 0x04
 dfa:	1b 81       	ldd	r17, Y+3	; 0x03
 dfc:	aa 81       	ldd	r26, Y+2	; 0x02
 dfe:	b9 81       	ldd	r27, Y+1	; 0x01
 e00:	ce 0f       	add	r28, r30
 e02:	d1 1d       	adc	r29, r1
 e04:	0f b6       	in	r0, 0x3f	; 63
 e06:	f8 94       	cli
 e08:	de bf       	out	0x3e, r29	; 62
 e0a:	0f be       	out	0x3f, r0	; 63
 e0c:	cd bf       	out	0x3d, r28	; 61
 e0e:	ed 01       	movw	r28, r26
 e10:	08 95       	ret

00000e12 <_exit>:
 e12:	f8 94       	cli

00000e14 <__stop_program>:
 e14:	ff cf       	rjmp	.-2      	; 0xe14 <__stop_program>
